Component: ARM Compiler 5.06 update 6 (build 750) Tool: armlink [4d35ed]

==============================================================================

Section Cross References

    app_touch.o(i.TouchStart_Judge) refers to app_touch.o(.bss) for TouchStruct
    app_touch.o(i.Touch_Clear) refers to app_touch.o(.bss) for TouchStruct
    app_touch.o(i.Touch_Judge) refers to app_touch.o(i.Touch_Clear) for Touch_Clear
    app_touch.o(i.Touch_Judge) refers to app_touch.o(.bss) for TouchStruct
    app_touch.o(i.Touch_main) refers to drive_touch.o(i.TouchRead) for TouchRead
    app_touch.o(i.Touch_main) refers to os_cpu.o(i.OSTimeDly) for OSTimeDly
    app_touch.o(i.Touch_main) refers to app_touch.o(.bss) for TouchStruct
    app_touch.o(i.Touch_main) refers to app_touch.o(.data) for LastX
    app_led.o(i.LED_main) refers to app_led.o(i.LED_Control) for LED_Control
    app_led.o(i.LED_main) refers to os_cpu.o(i.OSTimeDly) for OSTimeDly
    app_led.o(i.LED_main) refers to app_led.o(.data) for _led_cnt
    app_adf4351.o(i.ADF4351_main) refers to drive_touchkey.o(i.TouchKey_Draw) for TouchKey_Draw
    app_adf4351.o(i.ADF4351_main) refers to app_adf4351.o(i.Start_Meum) for Start_Meum
    app_adf4351.o(i.ADF4351_main) refers to app_switch.o(i.PID_Init) for PID_Init
    app_adf4351.o(i.ADF4351_main) refers to drive_touchkey.o(i.TouchKey_Scan) for TouchKey_Scan
    app_adf4351.o(i.ADF4351_main) refers to f2d.o(x$fpl$f2d) for __aeabi_f2d
    app_adf4351.o(i.ADF4351_main) refers to app_adf4351.o(i.Touch_Handle) for Touch_Handle
    app_adf4351.o(i.ADF4351_main) refers to os_cpu.o(i.OSTimeDly) for OSTimeDly
    app_adf4351.o(i.ADF4351_main) refers to app_adf4351.o(.data) for Data
    app_adf4351.o(i.Start_Meum) refers to os_ui.o(i.OS_String_Show) for OS_String_Show
    app_adf4351.o(i.Start_Meum) refers to os_ui.o(i.OS_Rect_Draw) for OS_Rect_Draw
    app_adf4351.o(i.Start_Meum) refers to os_ui.o(i.OS_Num_Show) for OS_Num_Show
    app_adf4351.o(i.Start_Meum) refers to dflt_clz.o(x$fpl$dfltu) for __aeabi_ui2d
    app_adf4351.o(i.Start_Meum) refers to app_adf4351.o(.data) for Out_Freq
    app_adf4351.o(i.Touch_Handle) refers to app_touch.o(i.Touch_Judge) for Touch_Judge
    app_adf4351.o(i.Touch_Handle) refers to app_adf4351.o(i.Start_Meum) for Start_Meum
    app_adf4351.o(i.Touch_Handle) refers to os_ui.o(i.OS_Rect_Draw) for OS_Rect_Draw
    app_adf4351.o(i.Touch_Handle) refers to ddiv.o(x$fpl$ddiv) for __aeabi_ddiv
    app_adf4351.o(i.Touch_Handle) refers to daddsub_clz.o(x$fpl$drsb) for __aeabi_drsub
    app_adf4351.o(i.Touch_Handle) refers to os_ui.o(i.OS_Num_Show) for OS_Num_Show
    app_adf4351.o(i.Touch_Handle) refers to daddsub_clz.o(x$fpl$dadd) for __aeabi_dadd
    app_adf4351.o(i.Touch_Handle) refers to d2f.o(x$fpl$d2f) for __aeabi_d2f
    app_adf4351.o(i.Touch_Handle) refers to drive_adf4351.o(i.ADF4351WriteFreq) for ADF4351WriteFreq
    app_adf4351.o(i.Touch_Handle) refers to deqf.o(x$fpl$deqf) for __aeabi_cdcmpeq
    app_adf4351.o(i.Touch_Handle) refers to dfixu.o(x$fpl$dfixu) for __aeabi_d2uiz
    app_adf4351.o(i.Touch_Handle) refers to f2d.o(x$fpl$f2d) for __aeabi_f2d
    app_adf4351.o(i.Touch_Handle) refers to app_adf4351.o(.data) for SetChoose
    app_key.o(i.Key_Clear) refers to app_key.o(.bss) for Key
    app_key.o(i.Key_Get) refers to app_key.o(.bss) for Key
    app_key.o(i.Key_Now_Get) refers to app_key.o(.bss) for Key
    app_key.o(i.Key_main) refers to os_cpu.o(i.OSTimeDly) for OSTimeDly
    app_key.o(i.Key_main) refers to app_key.o(.bss) for Key
    app_adf4351_sweep.o(i.ADF4351_Sweep_main) refers to d2f.o(x$fpl$d2f) for __aeabi_d2f
    app_adf4351_sweep.o(i.ADF4351_Sweep_main) refers to drive_adf4351.o(i.ADF4351WriteFreq) for ADF4351WriteFreq
    app_adf4351_sweep.o(i.ADF4351_Sweep_main) refers to daddsub_clz.o(x$fpl$dadd) for __aeabi_dadd
    app_adf4351_sweep.o(i.ADF4351_Sweep_main) refers to drleqf.o(x$fpl$drleqf) for __aeabi_cdrcmple
    app_adf4351_sweep.o(i.ADF4351_Sweep_main) refers to dfixu.o(x$fpl$dfixu) for __aeabi_d2uiz
    app_adf4351_sweep.o(i.ADF4351_Sweep_main) refers to os_cpu.o(i.OSTimeDly) for OSTimeDly
    app_adf4351_sweep.o(i.ADF4351_Sweep_main) refers to app_adf4351.o(.data) for ADF4351_Sweep
    app_adf4351_sweep.o(i.ADF4351_Sweep_main) refers to app_adf4351_sweep.o(.data) for Start_flag
    app_switch.o(i.PID_Init) refers to drive_pid.o(i.pid_reset) for pid_reset
    app_switch.o(i.PID_Init) refers to drive_pid.o(i.pid_init) for pid_init
    app_switch.o(i.PID_Init) refers to app_switch.o(.bss) for Pid_data
    app_switch.o(i.Switch_main) refers to drive_adc.o(i.ADC_Result_Get) for ADC_Result_Get
    app_switch.o(i.Switch_main) refers to f2d.o(x$fpl$f2d) for __aeabi_f2d
    app_switch.o(i.Switch_main) refers to ddiv.o(x$fpl$ddiv) for __aeabi_ddiv
    app_switch.o(i.Switch_main) refers to d2f.o(x$fpl$d2f) for __aeabi_d2f
    app_switch.o(i.Switch_main) refers to drive_pid.o(i.pid_calc) for pid_calc
    app_switch.o(i.Switch_main) refers to drive_dac.o(i.Dac2_Set_Vol) for Dac2_Set_Vol
    app_switch.o(i.Switch_main) refers to app_key.o(i.Key_Now_Get) for Key_Now_Get
    app_switch.o(i.Switch_main) refers to os_cpu.o(i.OSTaskRecovery) for OSTaskRecovery
    app_switch.o(i.Switch_main) refers to os_cpu.o(i.OSTaskSuspend) for OSTaskSuspend
    app_switch.o(i.Switch_main) refers to os_ui.o(i.OS_LCD_Clear) for OS_LCD_Clear
    app_switch.o(i.Switch_main) refers to drive_touchkey.o(i.TouchKey_Draw) for TouchKey_Draw
    app_switch.o(i.Switch_main) refers to app_adf4351.o(i.Start_Meum) for Start_Meum
    app_switch.o(i.Switch_main) refers to os_cpu.o(i.OSTimeDly) for OSTimeDly
    app_switch.o(i.Switch_main) refers to app_adf4351.o(.data) for ADF4351_Sweep
    app_switch.o(i.Switch_main) refers to app_switch.o(.data) for Last_Vol
    app_switch.o(i.Switch_main) refers to app_switch.o(.bss) for Pid_data
    app_freqana.o(i.AF_Multi_Measuring) refers to rt_memclr_w.o(.text) for __aeabi_memclr4
    app_freqana.o(i.AF_Multi_Measuring) refers to daddsub_clz.o(x$fpl$dsub) for __aeabi_dsub
    app_freqana.o(i.AF_Multi_Measuring) refers to dmul.o(x$fpl$dmul) for __aeabi_dmul
    app_freqana.o(i.AF_Multi_Measuring) refers to ddiv.o(x$fpl$ddiv) for __aeabi_ddiv
    app_freqana.o(i.AF_Multi_Measuring) refers to dfixu.o(x$fpl$dfixu) for __aeabi_d2uiz
    app_freqana.o(i.AF_Multi_Measuring) refers to dflt_clz.o(x$fpl$dfltu) for __aeabi_ui2d
    app_freqana.o(i.AF_Multi_Measuring) refers to daddsub_clz.o(x$fpl$dadd) for __aeabi_dadd
    app_freqana.o(i.AF_Multi_Measuring) refers to d2f.o(x$fpl$d2f) for __aeabi_d2f
    app_freqana.o(i.AF_Multi_Measuring) refers to drive_adf4351.o(i.ADF4351WriteFreq) for ADF4351WriteFreq
    app_freqana.o(i.AF_Multi_Measuring) refers to delay.o(i.delay_ms) for delay_ms
    app_freqana.o(i.AF_Multi_Measuring) refers to dflt_clz.o(x$fpl$dflt) for __aeabi_i2d
    app_freqana.o(i.AF_Multi_Measuring) refers to os_ui.o(i.OS_Num_Show) for OS_Num_Show
    app_freqana.o(i.AF_Multi_Measuring) refers to drive_ads1256.o(i.ADS1256ReadData) for ADS1256ReadData
    app_freqana.o(i.AF_Multi_Measuring) refers to drive_ads1256.o(i.Get_Val) for Get_Val
    app_freqana.o(i.AF_Multi_Measuring) refers to f2d.o(x$fpl$f2d) for __aeabi_f2d
    app_freqana.o(i.AF_Multi_Measuring) refers to app_adf4351.o(.data) for Start_Freq
    app_freqana.o(i.AF_Multi_Measuring) refers to os_ui.o(i.OS_String_Show) for OS_String_Show
    app_freqana.o(i.AF_Multi_Measuring) refers to drive_communication.o(i.sendData) for sendData
    app_freqana.o(i.AF_Multi_Measuring) refers to app_freqana.o(.bss) for GridData
    app_freqana.o(i.FreqAna_main) refers to app_freqana.o(i.GridData_Init) for GridData_Init
    app_freqana.o(i.FreqAna_main) refers to rt_memcpy_w.o(.text) for __aeabi_memcpy4
    app_freqana.o(i.FreqAna_main) refers to os_ui.o(i.Draw_Grid) for Draw_Grid
    app_freqana.o(i.FreqAna_main) refers to os_ui.o(i.Draw_Graph) for Draw_Graph
    app_freqana.o(i.FreqAna_main) refers to os_ui.o(i.Show_Label) for Show_Label
    app_freqana.o(i.FreqAna_main) refers to app_key.o(i.Key_Now_Get) for Key_Now_Get
    app_freqana.o(i.FreqAna_main) refers to os_ui.o(i.OS_LCD_Clear) for OS_LCD_Clear
    app_freqana.o(i.FreqAna_main) refers to app_freqana.o(i.AF_Multi_Measuring) for AF_Multi_Measuring
    app_freqana.o(i.FreqAna_main) refers to drive_communication.o(i.ESP8266_Client_Connect_Server) for ESP8266_Client_Connect_Server
    app_freqana.o(i.FreqAna_main) refers to os_cpu.o(i.OSTimeDly) for OSTimeDly
    app_freqana.o(i.FreqAna_main) refers to app_freqana.o(.bss) for GridData
    app_freqana.o(i.GridData_Init) refers to app_freqana.o(.bss) for GridData
    main.o(i.OS_Init) refers to os_cpu.o(i.System_init) for System_init
    main.o(i.OS_Init) refers to drive_gpio.o(i.LED_Init) for LED_Init
    main.o(i.OS_Init) refers to drive_gpio.o(i.GPIO_Key_Init) for GPIO_Key_Init
    main.o(i.OS_Init) refers to os_ui.o(i.OS_LCD_Init) for OS_LCD_Init
    main.o(i.OS_Init) refers to drive_touch.o(i.Touch_Init) for Touch_Init
    main.o(i.OS_Init) refers to drive_adf4351.o(i.ADF4351Init) for ADF4351Init
    main.o(i.OS_Init) refers to drive_adc.o(i.ADC1_Init) for ADC1_Init
    main.o(i.OS_Init) refers to drive_dac.o(i.Dac2_Init) for Dac2_Init
    main.o(i.OS_Init) refers to app_freqana.o(i.GridData_Init) for GridData_Init
    main.o(i.OS_Init) refers to usart.o(i.uart_init) for uart_init
    main.o(i.main) refers to os_cpu.o(i.Task_Create) for Task_Create
    main.o(i.main) refers to os_cpu.o(i.OSTaskSuspend) for OSTaskSuspend
    main.o(i.main) refers to main.o(i.OS_Init) for OS_Init
    main.o(i.main) refers to os_cpu.o(i.OS_Start) for OS_Start
    main.o(i.main) refers to main.o(.bss) for TASK_0_STK
    main.o(i.main) refers to app_led.o(i.LED_main) for LED_main
    main.o(i.main) refers to app_touch.o(i.Touch_main) for Touch_main
    main.o(i.main) refers to app_key.o(i.Key_main) for Key_main
    main.o(i.main) refers to app_switch.o(i.Switch_main) for Switch_main
    main.o(i.main) refers to app_adf4351_sweep.o(i.ADF4351_Sweep_main) for ADF4351_Sweep_main
    main.o(i.main) refers to app_adf4351.o(i.ADF4351_main) for ADF4351_main
    main.o(i.main) refers to app_freqana.o(i.FreqAna_main) for FreqAna_main
    os_cpu.o(i.OSGetHighRdy) refers to os_cpu.o(.data) for OSRdyTbl
    os_cpu.o(i.OSTaskRecovery) refers to core.o(CODE) for OS_CPU_SR_Save
    os_cpu.o(i.OSTaskRecovery) refers to os_cpu.o(i.OSSetPrioRdy) for OSSetPrioRdy
    os_cpu.o(i.OSTaskRecovery) refers to os_cpu.o(i.OS_Sched) for OS_Sched
    os_cpu.o(i.OSTaskRecovery) refers to os_cpu.o(.data) for OSRdyTbl
    os_cpu.o(i.OSTaskRecovery) refers to os_cpu.o(.bss) for TCB_Task
    os_cpu.o(i.OSTaskSuspend) refers to core.o(CODE) for OS_CPU_SR_Save
    os_cpu.o(i.OSTaskSuspend) refers to os_cpu.o(i.OSDelPrioRdy) for OSDelPrioRdy
    os_cpu.o(i.OSTaskSuspend) refers to os_cpu.o(i.OS_Sched) for OS_Sched
    os_cpu.o(i.OSTaskSuspend) refers to os_cpu.o(.data) for OS_PrioCur
    os_cpu.o(i.OSTaskSuspend) refers to os_cpu.o(.bss) for TCB_Task
    os_cpu.o(i.OSTimeDly) refers to core.o(CODE) for OS_CPU_SR_Save
    os_cpu.o(i.OSTimeDly) refers to os_cpu.o(i.OSDelPrioRdy) for OSDelPrioRdy
    os_cpu.o(i.OSTimeDly) refers to os_cpu.o(i.OS_Sched) for OS_Sched
    os_cpu.o(i.OSTimeDly) refers to os_cpu.o(.data) for OS_PrioCur
    os_cpu.o(i.OSTimeDly) refers to os_cpu.o(.bss) for TCB_Task
    os_cpu.o(i.OS_Sched) refers to core.o(CODE) for OS_CPU_SR_Save
    os_cpu.o(i.OS_Sched) refers to os_cpu.o(i.OSGetHighRdy) for OSGetHighRdy
    os_cpu.o(i.OS_Sched) refers to os_cpu.o(.data) for Sched_flag
    os_cpu.o(i.OS_Sched) refers to os_cpu.o(.bss) for TCB_Task
    os_cpu.o(i.OS_SchedLock) refers to core.o(CODE) for OS_CPU_SR_Save
    os_cpu.o(i.OS_SchedLock) refers to os_cpu.o(.data) for Sched_flag
    os_cpu.o(i.OS_SchedUnlock) refers to core.o(CODE) for OS_CPU_SR_Save
    os_cpu.o(i.OS_SchedUnlock) refers to os_cpu.o(.data) for Sched_flag
    os_cpu.o(i.OS_Start) refers to os_cpu.o(i.Task_Create) for Task_Create
    os_cpu.o(i.OS_Start) refers to os_cpu.o(i.OSGetHighRdy) for OSGetHighRdy
    os_cpu.o(i.OS_Start) refers to core.o(CODE) for OSStartHighRdy
    os_cpu.o(i.OS_Start) refers to os_cpu.o(.data) for OS_Running
    os_cpu.o(i.OS_Start) refers to os_cpu.o(.bss) for CPU_ExceptStk
    os_cpu.o(i.OS_Start) refers to os_cpu.o(i.OS_IDLE_Task) for OS_IDLE_Task
    os_cpu.o(i.SysTick_Handler) refers to core.o(CODE) for OS_CPU_SR_Save
    os_cpu.o(i.SysTick_Handler) refers to os_cpu.o(i.OSSetPrioRdy) for OSSetPrioRdy
    os_cpu.o(i.SysTick_Handler) refers to os_cpu.o(i.OS_Sched) for OS_Sched
    os_cpu.o(i.SysTick_Handler) refers to os_cpu.o(.data) for OS_Running
    os_cpu.o(i.SysTick_Handler) refers to os_cpu.o(.bss) for TCB_Task
    os_cpu.o(i.System_init) refers to misc.o(i.SysTick_CLKSourceConfig) for SysTick_CLKSourceConfig
    os_cpu.o(i.System_init) refers to system_stm32f4xx.o(.data) for SystemCoreClock
    os_cpu.o(i.System_init) refers to os_cpu.o(.data) for fac_us
    os_cpu.o(i.Task_Create) refers to os_cpu.o(i.OSSetPrioRdy) for OSSetPrioRdy
    os_cpu.o(i.Task_Create) refers to os_cpu.o(i.Task_End) for Task_End
    os_cpu.o(i.Task_Create) refers to os_cpu.o(.bss) for TCB_Task
    os_ui.o(i.Cursor_Data_Show) refers to os_ui.o(i.OS_Line_Draw) for OS_Line_Draw
    os_ui.o(i.Cursor_Data_Show) refers to os_ui.o(i.OS_Point_Draw) for OS_Point_Draw
    os_ui.o(i.Cursor_Data_Show) refers to f2d.o(x$fpl$f2d) for __aeabi_f2d
    os_ui.o(i.Cursor_Data_Show) refers to os_ui.o(i.OS_Num_Show) for OS_Num_Show
    os_ui.o(i.Cursor_Data_Show) refers to app_touch.o(.bss) for TouchStruct
    os_ui.o(i.Draw_Graph) refers to os_ui.o(i.OS_Line_Draw) for OS_Line_Draw
    os_ui.o(i.Draw_Graph) refers to os_ui.o(i.OS_Point_Draw) for OS_Point_Draw
    os_ui.o(i.Draw_Graph) refers to os_ui.o(.data) for frist
    os_ui.o(i.Draw_Grid) refers to os_ui.o(i.OS_Rect_Draw) for OS_Rect_Draw
    os_ui.o(i.Draw_Grid) refers to os_ui.o(i.OS_Point_Draw) for OS_Point_Draw
    os_ui.o(i.Draw_Grid) refers to os_ui.o(i.OS_Line_Draw) for OS_Line_Draw
    os_ui.o(i.OS_BackColor_Set) refers to tft_lcd.o(.data) for BackColor
    os_ui.o(i.OS_Char_Show) refers to os_ui.o(i.OS_Point_Draw) for OS_Point_Draw
    os_ui.o(i.OS_Char_Show) refers to fonts.o(.constdata) for asc2_1608
    os_ui.o(i.OS_Char_Show) refers to tft_lcd.o(.data) for TextColor
    os_ui.o(i.OS_Circle_Draw) refers to tft_lcd.o(i.LCD_DrawCircleS) for LCD_DrawCircleS
    os_ui.o(i.OS_Circle_Draw) refers to tft_lcd.o(i.LCD_DrawCircle) for LCD_DrawCircle
    os_ui.o(i.OS_Circle_Draw) refers to tft_lcd.o(.data) for TextColor
    os_ui.o(i.OS_Font_Show) refers to os_ui.o(i.OS_HzMat_Get) for OS_HzMat_Get
    os_ui.o(i.OS_Font_Show) refers to os_ui.o(i.OS_Point_Draw) for OS_Point_Draw
    os_ui.o(i.OS_Font_Show) refers to tft_lcd.o(.data) for TextColor
    os_ui.o(i.OS_HzMat_Get) refers to w25q64.o(i.W25Q64_Read) for W25Q64_Read
    os_ui.o(i.OS_HzMat_Get) refers to fontupd.o(.bss) for ftinfo
    os_ui.o(i.OS_LCD_Clear) refers to tft_lcd.o(i.LCD_Clear) for LCD_Clear
    os_ui.o(i.OS_LCD_Init) refers to tft_lcd.o(i.TFT_LCD_Init) for TFT_LCD_Init
    os_ui.o(i.OS_LCD_Init) refers to tft_lcd.o(i.LCD_Clear) for LCD_Clear
    os_ui.o(i.OS_LCD_Init) refers to fontupd.o(i.font_init) for font_init
    os_ui.o(i.OS_LCD_Init) refers to os_ui.o(i.OS_String_Show) for OS_String_Show
    os_ui.o(i.OS_LCD_Init) refers to tft_lcd.o(.data) for TextColor
    os_ui.o(i.OS_Line_Draw) refers to os_ui.o(i.OS_Point_Draw) for OS_Point_Draw
    os_ui.o(i.OS_Num_Show) refers to _printf_percent.o(.ARM.Collect$$_printf_percent$$00000000) for _printf_percent
    os_ui.o(i.OS_Num_Show) refers to _printf_g.o(.ARM.Collect$$_printf_percent$$00000005) for _printf_g
    os_ui.o(i.OS_Num_Show) refers to printf1.o(x$fpl$printf1) for _printf_fp_dec
    os_ui.o(i.OS_Num_Show) refers to _printf_pad.o(.text) for _printf_pre_padding
    os_ui.o(i.OS_Num_Show) refers to _printf_f.o(.ARM.Collect$$_printf_percent$$00000003) for _printf_f
    os_ui.o(i.OS_Num_Show) refers to _printf_e.o(.ARM.Collect$$_printf_percent$$00000004) for _printf_e
    os_ui.o(i.OS_Num_Show) refers to _printf_a.o(.ARM.Collect$$_printf_percent$$00000006) for _printf_a
    os_ui.o(i.OS_Num_Show) refers to printf2.o(x$fpl$printf2) for _printf_fp_hex
    os_ui.o(i.OS_Num_Show) refers to rt_memclr_w.o(.text) for __aeabi_memclr4
    os_ui.o(i.OS_Num_Show) refers to noretval__2sprintf.o(.text) for __2sprintf
    os_ui.o(i.OS_Num_Show) refers to os_ui.o(i.OS_String_Show) for OS_String_Show
    os_ui.o(i.OS_Picture_Draw) refers to tft_lcd.o(i.LCD_SetCursor) for LCD_SetCursor
    os_ui.o(i.OS_Picture_Draw) refers to tft_lcd.o(i.LCD_WriteRAM_Prepare) for LCD_WriteRAM_Prepare
    os_ui.o(i.OS_Picture_Draw) refers to tft_lcd.o(i.LCD_WriteRAM) for LCD_WriteRAM
    os_ui.o(i.OS_Picture_Draw) refers to tft_lcd.o(.data) for TextColor
    os_ui.o(i.OS_Picture_Draw) refers to os_ui.o(.data) for UeseState
    os_ui.o(i.OS_Point_Draw) refers to tft_lcd.o(i.LCD_SetCursor) for LCD_SetCursor
    os_ui.o(i.OS_Point_Draw) refers to tft_lcd.o(i.LCD_WriteRAM_Prepare) for LCD_WriteRAM_Prepare
    os_ui.o(i.OS_Point_Draw) refers to tft_lcd.o(i.LCD_WriteRAM) for LCD_WriteRAM
    os_ui.o(i.OS_Rect_Draw) refers to tft_lcd.o(i.LCD_DrawRectS) for LCD_DrawRectS
    os_ui.o(i.OS_Rect_Draw) refers to os_ui.o(i.OS_Line_Draw) for OS_Line_Draw
    os_ui.o(i.OS_Rect_Draw) refers to tft_lcd.o(.data) for TextColor
    os_ui.o(i.OS_String_Show) refers to os_ui.o(i.OS_Char_Show) for OS_Char_Show
    os_ui.o(i.OS_String_Show) refers to os_ui.o(i.OS_Font_Show) for OS_Font_Show
    os_ui.o(i.OS_TextColor_Set) refers to tft_lcd.o(.data) for TextColor
    os_ui.o(i.OS_Wave_Draw) refers to os_ui.o(i.OS_Wave_Windows_Show) for OS_Wave_Windows_Show
    os_ui.o(i.OS_Wave_Draw) refers to os_ui.o(i.OS_Wave_Line_Show) for OS_Wave_Line_Show
    os_ui.o(i.OS_Wave_Line_Show) refers to os_ui.o(i.OS_Line_Draw) for OS_Line_Draw
    os_ui.o(i.OS_Wave_Line_Show) refers to os_ui.o(i.OS_Point_Draw) for OS_Point_Draw
    os_ui.o(i.OS_Wave_Line_Show) refers to dflt_clz.o(x$fpl$dflt) for __aeabi_i2d
    os_ui.o(i.OS_Wave_Line_Show) refers to f2d.o(x$fpl$f2d) for __aeabi_f2d
    os_ui.o(i.OS_Wave_Line_Show) refers to dmul.o(x$fpl$dmul) for __aeabi_dmul
    os_ui.o(i.OS_Wave_Line_Show) refers to dflt_clz.o(x$fpl$dfltu) for __aeabi_ui2d
    os_ui.o(i.OS_Wave_Line_Show) refers to daddsub_clz.o(x$fpl$dsub) for __aeabi_dsub
    os_ui.o(i.OS_Wave_Line_Show) refers to dfixu.o(x$fpl$dfixu) for __aeabi_d2uiz
    os_ui.o(i.OS_Wave_Windows_Show) refers to os_ui.o(i.OS_Rect_Draw) for OS_Rect_Draw
    os_ui.o(i.OS_Wave_Windows_Show) refers to os_ui.o(i.OS_Line_Draw) for OS_Line_Draw
    os_ui.o(i.Show_Label) refers to os_ui.o(i.OS_String_Show) for OS_String_Show
    os_ui.o(i.Show_Label) refers to log10f.o(i.__hardfp_log10f) for __hardfp_log10f
    os_ui.o(i.Show_Label) refers to powf.o(i.__hardfp_powf) for __hardfp_powf
    os_ui.o(i.Show_Label) refers to f2d.o(x$fpl$f2d) for __aeabi_f2d
    os_ui.o(i.Show_Label) refers to os_ui.o(i.OS_Num_Show) for OS_Num_Show
    os_ui.o(i.Show_Label) refers to os_ui.o(i.OS_Line_Draw) for OS_Line_Draw
    os_malloc.o(i.my_mem_free) refers to os_malloc.o(.data) for mallco_dev
    os_malloc.o(i.my_mem_free) refers to os_malloc.o(.constdata) for memsize
    os_malloc.o(i.my_mem_init) refers to os_malloc.o(i.mymemset) for mymemset
    os_malloc.o(i.my_mem_init) refers to os_malloc.o(.constdata) for memtblsize
    os_malloc.o(i.my_mem_init) refers to os_malloc.o(.data) for mallco_dev
    os_malloc.o(i.my_mem_malloc) refers to os_malloc.o(.data) for mallco_dev
    os_malloc.o(i.my_mem_malloc) refers to os_malloc.o(.constdata) for memblksize
    os_malloc.o(i.my_mem_perused) refers to os_malloc.o(.data) for mallco_dev
    os_malloc.o(i.my_mem_perused) refers to os_malloc.o(.constdata) for memtblsize
    os_malloc.o(i.myfree) refers to core.o(CODE) for OS_CPU_SR_Save
    os_malloc.o(i.myfree) refers to os_malloc.o(i.my_mem_free) for my_mem_free
    os_malloc.o(i.myfree) refers to os_malloc.o(.data) for mallco_dev
    os_malloc.o(i.mymalloc) refers to core.o(CODE) for OS_CPU_SR_Save
    os_malloc.o(i.mymalloc) refers to os_malloc.o(i.my_mem_malloc) for my_mem_malloc
    os_malloc.o(i.mymalloc) refers to os_malloc.o(.data) for mallco_dev
    os_malloc.o(i.myrealloc) refers to core.o(CODE) for OS_CPU_SR_Save
    os_malloc.o(i.myrealloc) refers to os_malloc.o(i.my_mem_malloc) for my_mem_malloc
    os_malloc.o(i.myrealloc) refers to os_malloc.o(i.mymemcpy) for mymemcpy
    os_malloc.o(i.myrealloc) refers to os_malloc.o(i.myfree) for myfree
    os_malloc.o(i.myrealloc) refers to os_malloc.o(.data) for mallco_dev
    os_malloc.o(.data) refers to os_malloc.o(i.my_mem_init) for my_mem_init
    os_malloc.o(.data) refers to os_malloc.o(i.my_mem_perused) for my_mem_perused
    os_malloc.o(.data) refers to os_malloc.o(.bss) for mem1base
    os_malloc.o(.data) refers to os_malloc.o(.ARM.__AT_0x68000000) for mem2base
    os_malloc.o(.data) refers to os_malloc.o(.ARM.__AT_0x10000000) for mem3base
    os_malloc.o(.data) refers to os_malloc.o(.ARM.__AT_0x680F0000) for mem2mapbase
    os_malloc.o(.data) refers to os_malloc.o(.ARM.__AT_0x1000F000) for mem3mapbase
    core.o(CODE) refers to os_cpu.o(.data) for CPU_ExceptStkBase
    delay.o(i.delay_ms) refers to os_cpu.o(i.OSTimeDly) for OSTimeDly
    delay.o(i.delay_ms) refers to delay.o(i.delay_us) for delay_us
    delay.o(i.delay_ms) refers to os_cpu.o(.data) for OS_Running
    delay.o(i.delay_us) refers to os_cpu.o(i.OS_SchedLock) for OS_SchedLock
    delay.o(i.delay_us) refers to os_cpu.o(i.OS_SchedUnlock) for OS_SchedUnlock
    delay.o(i.delay_us) refers to os_cpu.o(.data) for fac_us
    usart.o(.rev16_text) refers (Special) to use_no_semi_2.o(.text) for __use_no_semihosting
    usart.o(.revsh_text) refers (Special) to use_no_semi_2.o(.text) for __use_no_semihosting
    usart.o(i.USART1_IRQHandler) refers (Special) to use_no_semi_2.o(.text) for __use_no_semihosting
    usart.o(i.USART1_IRQHandler) refers to stm32f4xx_usart.o(i.USART_GetITStatus) for USART_GetITStatus
    usart.o(i.USART1_IRQHandler) refers to stm32f4xx_usart.o(i.USART_ReceiveData) for USART_ReceiveData
    usart.o(i.USART1_IRQHandler) refers to usart.o(.data) for i
    usart.o(i.USART1_IRQHandler) refers to drive_communication.o(.bss) for communicationData
    usart.o(i.USART1_IRQHandler) refers to usart.o(.bss) for USART_RX_BUF
    usart.o(i._sys_exit) refers (Special) to use_no_semi_2.o(.text) for __use_no_semihosting
    usart.o(i.atk_8266_apsta_check) refers (Special) to use_no_semi_2.o(.text) for __use_no_semihosting
    usart.o(i.atk_8266_apsta_check) refers to usart.o(i.atk_8266_send_cmd) for atk_8266_send_cmd
    usart.o(i.atk_8266_apsta_check) refers to usart.o(i.atk_8266_check_cmd) for atk_8266_check_cmd
    usart.o(i.atk_8266_at_response) refers (Special) to use_no_semi_2.o(.text) for __use_no_semihosting
    usart.o(i.atk_8266_at_response) refers to _printf_percent.o(.ARM.Collect$$_printf_percent$$00000000) for _printf_percent
    usart.o(i.atk_8266_at_response) refers to _printf_s.o(.ARM.Collect$$_printf_percent$$00000014) for _printf_s
    usart.o(i.atk_8266_at_response) refers to _printf_str.o(.text) for _printf_str
    usart.o(i.atk_8266_at_response) refers to noretval__2printf.o(.text) for __2printf
    usart.o(i.atk_8266_at_response) refers to usart.o(.data) for USART_RX_STA
    usart.o(i.atk_8266_at_response) refers to usart.o(.bss) for USART_RX_BUF
    usart.o(i.atk_8266_check_cmd) refers (Special) to use_no_semi_2.o(.text) for __use_no_semihosting
    usart.o(i.atk_8266_check_cmd) refers to strstr.o(.text) for strstr
    usart.o(i.atk_8266_check_cmd) refers to usart.o(.data) for USART_RX_STA
    usart.o(i.atk_8266_check_cmd) refers to usart.o(.bss) for USART_RX_BUF
    usart.o(i.atk_8266_consta_check) refers (Special) to use_no_semi_2.o(.text) for __use_no_semihosting
    usart.o(i.atk_8266_consta_check) refers to usart.o(i.atk_8266_quit_trans) for atk_8266_quit_trans
    usart.o(i.atk_8266_consta_check) refers to usart.o(i.atk_8266_send_cmd) for atk_8266_send_cmd
    usart.o(i.atk_8266_consta_check) refers to usart.o(i.atk_8266_check_cmd) for atk_8266_check_cmd
    usart.o(i.atk_8266_quit_trans) refers (Special) to use_no_semi_2.o(.text) for __use_no_semihosting
    usart.o(i.atk_8266_quit_trans) refers to delay.o(i.delay_ms) for delay_ms
    usart.o(i.atk_8266_quit_trans) refers to usart.o(i.atk_8266_send_cmd) for atk_8266_send_cmd
    usart.o(i.atk_8266_send_cmd) refers (Special) to use_no_semi_2.o(.text) for __use_no_semihosting
    usart.o(i.atk_8266_send_cmd) refers to _printf_percent.o(.ARM.Collect$$_printf_percent$$00000000) for _printf_percent
    usart.o(i.atk_8266_send_cmd) refers to _printf_s.o(.ARM.Collect$$_printf_percent$$00000014) for _printf_s
    usart.o(i.atk_8266_send_cmd) refers to _printf_str.o(.text) for _printf_str
    usart.o(i.atk_8266_send_cmd) refers to noretval__2printf.o(.text) for __2printf
    usart.o(i.atk_8266_send_cmd) refers to delay.o(i.delay_ms) for delay_ms
    usart.o(i.atk_8266_send_cmd) refers to usart.o(i.atk_8266_check_cmd) for atk_8266_check_cmd
    usart.o(i.atk_8266_send_cmd) refers to usart.o(.data) for USART_RX_STA
    usart.o(i.atk_8266_send_data) refers (Special) to use_no_semi_2.o(.text) for __use_no_semihosting
    usart.o(i.atk_8266_send_data) refers to _printf_percent.o(.ARM.Collect$$_printf_percent$$00000000) for _printf_percent
    usart.o(i.atk_8266_send_data) refers to _printf_s.o(.ARM.Collect$$_printf_percent$$00000014) for _printf_s
    usart.o(i.atk_8266_send_data) refers to _printf_str.o(.text) for _printf_str
    usart.o(i.atk_8266_send_data) refers to noretval__2printf.o(.text) for __2printf
    usart.o(i.atk_8266_send_data) refers to delay.o(i.delay_ms) for delay_ms
    usart.o(i.atk_8266_send_data) refers to usart.o(i.atk_8266_check_cmd) for atk_8266_check_cmd
    usart.o(i.atk_8266_send_data) refers to usart.o(.data) for USART_RX_STA
    usart.o(i.fputc) refers (Special) to use_no_semi_2.o(.text) for __use_no_semihosting
    usart.o(i.uart_init) refers (Special) to use_no_semi_2.o(.text) for __use_no_semihosting
    usart.o(i.uart_init) refers to stm32f4xx_rcc.o(i.RCC_AHB1PeriphClockCmd) for RCC_AHB1PeriphClockCmd
    usart.o(i.uart_init) refers to stm32f4xx_rcc.o(i.RCC_APB2PeriphClockCmd) for RCC_APB2PeriphClockCmd
    usart.o(i.uart_init) refers to stm32f4xx_gpio.o(i.GPIO_PinAFConfig) for GPIO_PinAFConfig
    usart.o(i.uart_init) refers to stm32f4xx_gpio.o(i.GPIO_Init) for GPIO_Init
    usart.o(i.uart_init) refers to stm32f4xx_usart.o(i.USART_Init) for USART_Init
    usart.o(i.uart_init) refers to stm32f4xx_usart.o(i.USART_Cmd) for USART_Cmd
    usart.o(i.uart_init) refers to stm32f4xx_usart.o(i.USART_ITConfig) for USART_ITConfig
    usart.o(i.uart_init) refers to misc.o(i.NVIC_Init) for NVIC_Init
    usart.o(.bss) refers (Special) to use_no_semi_2.o(.text) for __use_no_semihosting
    usart.o(.data) refers (Special) to use_no_semi_2.o(.text) for __use_no_semihosting
    drive_adc.o(i.ADC1_Init) refers to stm32f4xx_rcc.o(i.RCC_AHB1PeriphClockCmd) for RCC_AHB1PeriphClockCmd
    drive_adc.o(i.ADC1_Init) refers to stm32f4xx_rcc.o(i.RCC_APB2PeriphClockCmd) for RCC_APB2PeriphClockCmd
    drive_adc.o(i.ADC1_Init) refers to stm32f4xx_gpio.o(i.GPIO_Init) for GPIO_Init
    drive_adc.o(i.ADC1_Init) refers to stm32f4xx_rcc.o(i.RCC_APB2PeriphResetCmd) for RCC_APB2PeriphResetCmd
    drive_adc.o(i.ADC1_Init) refers to stm32f4xx_adc.o(i.ADC_CommonInit) for ADC_CommonInit
    drive_adc.o(i.ADC1_Init) refers to stm32f4xx_adc.o(i.ADC_Init) for ADC_Init
    drive_adc.o(i.ADC1_Init) refers to stm32f4xx_adc.o(i.ADC_Cmd) for ADC_Cmd
    drive_adc.o(i.ADC2_Init) refers to stm32f4xx_rcc.o(i.RCC_AHB1PeriphClockCmd) for RCC_AHB1PeriphClockCmd
    drive_adc.o(i.ADC2_Init) refers to stm32f4xx_rcc.o(i.RCC_APB2PeriphClockCmd) for RCC_APB2PeriphClockCmd
    drive_adc.o(i.ADC2_Init) refers to stm32f4xx_gpio.o(i.GPIO_Init) for GPIO_Init
    drive_adc.o(i.ADC2_Init) refers to stm32f4xx_rcc.o(i.RCC_APB2PeriphResetCmd) for RCC_APB2PeriphResetCmd
    drive_adc.o(i.ADC2_Init) refers to stm32f4xx_adc.o(i.ADC_CommonInit) for ADC_CommonInit
    drive_adc.o(i.ADC2_Init) refers to stm32f4xx_adc.o(i.ADC_Init) for ADC_Init
    drive_adc.o(i.ADC2_Init) refers to stm32f4xx_adc.o(i.ADC_Cmd) for ADC_Cmd
    drive_adc.o(i.ADC_Average_Get) refers to drive_adc.o(i.ADC_Result_Get) for ADC_Result_Get
    drive_adc.o(i.ADC_Result_Get) refers to stm32f4xx_adc.o(i.ADC_RegularChannelConfig) for ADC_RegularChannelConfig
    drive_adc.o(i.ADC_Result_Get) refers to stm32f4xx_adc.o(i.ADC_SoftwareStartConv) for ADC_SoftwareStartConv
    drive_adc.o(i.ADC_Result_Get) refers to stm32f4xx_adc.o(i.ADC_GetFlagStatus) for ADC_GetFlagStatus
    drive_adc.o(i.ADC_Result_Get) refers to stm32f4xx_adc.o(i.ADC_GetConversionValue) for ADC_GetConversionValue
    drive_adc.o(i.ADC_Waveform_Get) refers to dflt_clz.o(x$fpl$dfltu) for __aeabi_ui2d
    drive_adc.o(i.ADC_Waveform_Get) refers to dflt_clz.o(x$fpl$dflt) for __aeabi_i2d
    drive_adc.o(i.ADC_Waveform_Get) refers to ddiv.o(x$fpl$ddiv) for __aeabi_ddiv
    drive_adc.o(i.ADC_Waveform_Get) refers to dmul.o(x$fpl$dmul) for __aeabi_dmul
    drive_adc.o(i.ADC_Waveform_Get) refers to daddsub_clz.o(x$fpl$dadd) for __aeabi_dadd
    drive_adc.o(i.ADC_Waveform_Get) refers to dfixu.o(x$fpl$dfixu) for __aeabi_d2uiz
    drive_adc.o(i.ADC_Waveform_Get) refers to daddsub_clz.o(x$fpl$drsb) for __aeabi_drsub
    drive_adc.o(i.ADC_Waveform_Get) refers to drleqf.o(x$fpl$drleqf) for __aeabi_cdrcmple
    drive_adc.o(i.ADC_Waveform_Get) refers to daddsub_clz.o(x$fpl$dsub) for __aeabi_dsub
    drive_adc.o(i.Adc_Init) refers to stm32f4xx_rcc.o(i.RCC_AHB1PeriphClockCmd) for RCC_AHB1PeriphClockCmd
    drive_adc.o(i.Adc_Init) refers to stm32f4xx_rcc.o(i.RCC_APB2PeriphClockCmd) for RCC_APB2PeriphClockCmd
    drive_adc.o(i.Adc_Init) refers to stm32f4xx_gpio.o(i.GPIO_Init) for GPIO_Init
    drive_adc.o(i.Adc_Init) refers to stm32f4xx_rcc.o(i.RCC_APB2PeriphResetCmd) for RCC_APB2PeriphResetCmd
    drive_adc.o(i.Adc_Init) refers to stm32f4xx_adc.o(i.ADC_CommonInit) for ADC_CommonInit
    drive_adc.o(i.Adc_Init) refers to stm32f4xx_adc.o(i.ADC_Init) for ADC_Init
    drive_adc.o(i.Adc_Init) refers to stm32f4xx_adc.o(i.ADC_Cmd) for ADC_Cmd
    drive_adc.o(i.Get_Adc) refers to stm32f4xx_adc.o(i.ADC_RegularChannelConfig) for ADC_RegularChannelConfig
    drive_adc.o(i.Get_Adc) refers to stm32f4xx_adc.o(i.ADC_SoftwareStartConv) for ADC_SoftwareStartConv
    drive_adc.o(i.Get_Adc) refers to stm32f4xx_adc.o(i.ADC_GetFlagStatus) for ADC_GetFlagStatus
    drive_adc.o(i.Get_Adc) refers to stm32f4xx_adc.o(i.ADC_GetConversionValue) for ADC_GetConversionValue
    drive_adc.o(i.Get_Adc_Average) refers to drive_adc.o(i.Get_Adc) for Get_Adc
    drive_adc.o(i.Get_Adc_Average) refers to delay.o(i.delay_ms) for delay_ms
    drive_gpio.o(i.GPIO_ADF_Init) refers to stm32f4xx_rcc.o(i.RCC_AHB1PeriphClockCmd) for RCC_AHB1PeriphClockCmd
    drive_gpio.o(i.GPIO_ADF_Init) refers to stm32f4xx_gpio.o(i.GPIO_Init) for GPIO_Init
    drive_gpio.o(i.GPIO_Data_Init) refers to stm32f4xx_rcc.o(i.RCC_AHB1PeriphClockCmd) for RCC_AHB1PeriphClockCmd
    drive_gpio.o(i.GPIO_Data_Init) refers to stm32f4xx_gpio.o(i.GPIO_Init) for GPIO_Init
    drive_gpio.o(i.GPIO_Key_Init) refers to stm32f4xx_rcc.o(i.RCC_AHB1PeriphClockCmd) for RCC_AHB1PeriphClockCmd
    drive_gpio.o(i.GPIO_Key_Init) refers to stm32f4xx_gpio.o(i.GPIO_Init) for GPIO_Init
    drive_gpio.o(i.GPIO_POW_Init) refers to stm32f4xx_rcc.o(i.RCC_AHB1PeriphClockCmd) for RCC_AHB1PeriphClockCmd
    drive_gpio.o(i.GPIO_POW_Init) refers to stm32f4xx_gpio.o(i.GPIO_Init) for GPIO_Init
    drive_gpio.o(i.GPIO_POW_Init) refers to stm32f4xx_gpio.o(i.GPIO_ResetBits) for GPIO_ResetBits
    drive_gpio.o(i.LED_Init) refers to stm32f4xx_rcc.o(i.RCC_AHB1PeriphClockCmd) for RCC_AHB1PeriphClockCmd
    drive_gpio.o(i.LED_Init) refers to stm32f4xx_gpio.o(i.GPIO_Init) for GPIO_Init
    drive_dac.o(i.DAC1_Init) refers to stm32f4xx_rcc.o(i.RCC_AHB1PeriphClockCmd) for RCC_AHB1PeriphClockCmd
    drive_dac.o(i.DAC1_Init) refers to stm32f4xx_rcc.o(i.RCC_APB1PeriphClockCmd) for RCC_APB1PeriphClockCmd
    drive_dac.o(i.DAC1_Init) refers to stm32f4xx_gpio.o(i.GPIO_Init) for GPIO_Init
    drive_dac.o(i.DAC1_Init) refers to stm32f4xx_dac.o(i.DAC_Init) for DAC_Init
    drive_dac.o(i.DAC1_Init) refers to stm32f4xx_dac.o(i.DAC_Cmd) for DAC_Cmd
    drive_dac.o(i.DAC1_Init) refers to stm32f4xx_dac.o(i.DAC_SetChannel1Data) for DAC_SetChannel1Data
    drive_dac.o(i.DAC1_Vol_Set) refers to stm32f4xx_dac.o(i.DAC_SetChannel1Data) for DAC_SetChannel1Data
    drive_dac.o(i.Dac1_Init) refers to stm32f4xx_rcc.o(i.RCC_AHB1PeriphClockCmd) for RCC_AHB1PeriphClockCmd
    drive_dac.o(i.Dac1_Init) refers to stm32f4xx_rcc.o(i.RCC_APB1PeriphClockCmd) for RCC_APB1PeriphClockCmd
    drive_dac.o(i.Dac1_Init) refers to stm32f4xx_gpio.o(i.GPIO_Init) for GPIO_Init
    drive_dac.o(i.Dac1_Init) refers to stm32f4xx_dac.o(i.DAC_Init) for DAC_Init
    drive_dac.o(i.Dac1_Init) refers to stm32f4xx_dac.o(i.DAC_Cmd) for DAC_Cmd
    drive_dac.o(i.Dac1_Init) refers to stm32f4xx_dac.o(i.DAC_SetChannel1Data) for DAC_SetChannel1Data
    drive_dac.o(i.Dac1_Set_Vol) refers to dflt_clz.o(x$fpl$dfltu) for __aeabi_ui2d
    drive_dac.o(i.Dac1_Set_Vol) refers to ddiv.o(x$fpl$ddiv) for __aeabi_ddiv
    drive_dac.o(i.Dac1_Set_Vol) refers to dmul.o(x$fpl$dmul) for __aeabi_dmul
    drive_dac.o(i.Dac1_Set_Vol) refers to dfixu.o(x$fpl$dfixu) for __aeabi_d2uiz
    drive_dac.o(i.Dac1_Set_Vol) refers to stm32f4xx_dac.o(i.DAC_SetChannel1Data) for DAC_SetChannel1Data
    drive_dac.o(i.Dac2_Init) refers to stm32f4xx_rcc.o(i.RCC_AHB1PeriphClockCmd) for RCC_AHB1PeriphClockCmd
    drive_dac.o(i.Dac2_Init) refers to stm32f4xx_rcc.o(i.RCC_APB1PeriphClockCmd) for RCC_APB1PeriphClockCmd
    drive_dac.o(i.Dac2_Init) refers to stm32f4xx_gpio.o(i.GPIO_Init) for GPIO_Init
    drive_dac.o(i.Dac2_Init) refers to stm32f4xx_dac.o(i.DAC_Init) for DAC_Init
    drive_dac.o(i.Dac2_Init) refers to stm32f4xx_dac.o(i.DAC_Cmd) for DAC_Cmd
    drive_dac.o(i.Dac2_Init) refers to stm32f4xx_dac.o(i.DAC_SetChannel2Data) for DAC_SetChannel2Data
    drive_dac.o(i.Dac2_Set_Vol) refers to stm32f4xx_dac.o(i.DAC_SetChannel2Data) for DAC_SetChannel2Data
    drive_dac.o(i.dacClose) refers to stm32f4xx_dac.o(i.DAC_Cmd) for DAC_Cmd
    drive_dac.o(i.dacClose) refers to stm32f4xx_tim.o(i.TIM_Cmd) for TIM_Cmd
    drive_dac.o(i.dacInit) refers to stm32f4xx_rcc.o(i.RCC_AHB1PeriphClockCmd) for RCC_AHB1PeriphClockCmd
    drive_dac.o(i.dacInit) refers to stm32f4xx_rcc.o(i.RCC_APB1PeriphClockCmd) for RCC_APB1PeriphClockCmd
    drive_dac.o(i.dacInit) refers to stm32f4xx_gpio.o(i.GPIO_Init) for GPIO_Init
    drive_dac.o(i.dacInit) refers to stm32f4xx_dac.o(i.DAC_Init) for DAC_Init
    drive_dac.o(i.dacInit) refers to stm32f4xx_dma.o(i.DMA_DeInit) for DMA_DeInit
    drive_dac.o(i.dacInit) refers to stm32f4xx_dma.o(i.DMA_Init) for DMA_Init
    drive_dac.o(i.dacInit) refers to stm32f4xx_dma.o(i.DMA_Cmd) for DMA_Cmd
    drive_dac.o(i.dacInit) refers to stm32f4xx_dac.o(i.DAC_DMACmd) for DAC_DMACmd
    drive_dac.o(i.dacInit) refers to stm32f4xx_dac.o(i.DAC_Cmd) for DAC_Cmd
    drive_dac.o(i.dacInit) refers to stm32f4xx_dac.o(i.DAC_SoftwareTriggerCmd) for DAC_SoftwareTriggerCmd
    drive_dac.o(i.dacInit) refers to drive_dac.o(i.ddsDataInit) for ddsDataInit
    drive_dac.o(i.dacInit) refers to drive_dac.o(.bss) for ddsStructData
    drive_dac.o(i.dacInit) refers to drive_dac.o(.data) for firstInitFlag
    drive_dac.o(i.dacOpen) refers to stm32f4xx_dac.o(i.DAC_Cmd) for DAC_Cmd
    drive_dac.o(i.dacOpen) refers to stm32f4xx_tim.o(i.TIM_Cmd) for TIM_Cmd
    drive_dac.o(i.ddsDataInit) refers to drive_dac.o(.bss) for ddsStructData
    drive_dac.o(i.ddsDataInit) refers to drive_dac.o(i.ddsSinWave) for ddsSinWave
    drive_dac.o(i.ddsSawtoothWave) refers to dflt_clz.o(x$fpl$dfltu) for __aeabi_ui2d
    drive_dac.o(i.ddsSawtoothWave) refers to dmul.o(x$fpl$dmul) for __aeabi_dmul
    drive_dac.o(i.ddsSawtoothWave) refers to ddiv.o(x$fpl$ddiv) for __aeabi_ddiv
    drive_dac.o(i.ddsSawtoothWave) refers to f2d.o(x$fpl$f2d) for __aeabi_f2d
    drive_dac.o(i.ddsSinWave) refers to dflt_clz.o(x$fpl$dfltu) for __aeabi_ui2d
    drive_dac.o(i.ddsSinWave) refers to dmul.o(x$fpl$dmul) for __aeabi_dmul
    drive_dac.o(i.ddsSinWave) refers to ddiv.o(x$fpl$ddiv) for __aeabi_ddiv
    drive_dac.o(i.ddsSinWave) refers to sin.o(i.__hardfp_sin) for __hardfp_sin
    drive_dac.o(i.ddsSquareWave) refers to ddiv.o(x$fpl$ddiv) for __aeabi_ddiv
    drive_dac.o(i.ddsSquareWave) refers to dflt_clz.o(x$fpl$dfltu) for __aeabi_ui2d
    drive_dac.o(i.ddsSquareWave) refers to dmul.o(x$fpl$dmul) for __aeabi_dmul
    drive_dac.o(i.ddsSquareWave) refers to dleqf.o(x$fpl$dleqf) for __aeabi_cdcmple
    drive_dac.o(i.ddsTriangleWave) refers to f2d.o(x$fpl$f2d) for __aeabi_f2d
    drive_dac.o(i.setDDS) refers to stm32f4xx_tim.o(i.TIM_Cmd) for TIM_Cmd
    drive_dac.o(i.setDDS) refers to drive_dac.o(i.dacInit) for dacInit
    drive_dac.o(i.setDDS) refers to d2f.o(x$fpl$d2f) for __aeabi_d2f
    drive_dac.o(i.setDDS) refers to dflt_clz.o(x$fpl$dfltu) for __aeabi_ui2d
    drive_dac.o(i.setDDS) refers to ddiv.o(x$fpl$ddiv) for __aeabi_ddiv
    drive_dac.o(i.setDDS) refers to dfixu.o(x$fpl$dfixu) for __aeabi_d2uiz
    drive_dac.o(i.setDDS) refers to daddsub_clz.o(x$fpl$dadd) for __aeabi_dadd
    drive_dac.o(i.setDDS) refers to drive_dac.o(i.timer6Init) for timer6Init
    drive_dac.o(i.setDDS) refers to drive_dac.o(.bss) for ddsStructData
    drive_dac.o(i.setDDS) refers to drive_dac.o(.data) for preLength
    drive_dac.o(i.setDDS) refers to drive_dac.o(i.ddsSinWave) for ddsSinWave
    drive_dac.o(i.setDDS) refers to drive_dac.o(i.ddsTriangleWave) for ddsTriangleWave
    drive_dac.o(i.setDDS) refers to drive_dac.o(i.ddsSawtoothWave) for ddsSawtoothWave
    drive_dac.o(i.setDDS) refers to drive_dac.o(i.ddsSquareWave) for ddsSquareWave
    drive_dac.o(i.timer6Init) refers to stm32f4xx_rcc.o(i.RCC_APB1PeriphClockCmd) for RCC_APB1PeriphClockCmd
    drive_dac.o(i.timer6Init) refers to stm32f4xx_tim.o(i.TIM_TimeBaseInit) for TIM_TimeBaseInit
    drive_dac.o(i.timer6Init) refers to stm32f4xx_tim.o(i.TIM_SelectOutputTrigger) for TIM_SelectOutputTrigger
    drive_dac.o(i.timer6Init) refers to stm32f4xx_tim.o(i.TIM_Cmd) for TIM_Cmd
    drive_interrupt.o(i.EXTI0_IRQHandler) refers to stm32f4xx_exti.o(i.EXTI_GetITStatus) for EXTI_GetITStatus
    drive_interrupt.o(i.EXTI15_10_IRQHandler) refers to stm32f4xx_exti.o(i.EXTI_GetITStatus) for EXTI_GetITStatus
    drive_interrupt.o(i.EXTI15_10_IRQHandler) refers to stm32f4xx_exti.o(i.EXTI_ClearITPendingBit) for EXTI_ClearITPendingBit
    drive_interrupt.o(i.EXTI1_IRQHandler) refers to stm32f4xx_exti.o(i.EXTI_GetITStatus) for EXTI_GetITStatus
    drive_interrupt.o(i.EXTI1_IRQHandler) refers to stm32f4xx_exti.o(i.EXTI_ClearITPendingBit) for EXTI_ClearITPendingBit
    drive_interrupt.o(i.EXTI2_IRQHandler) refers to stm32f4xx_exti.o(i.EXTI_GetITStatus) for EXTI_GetITStatus
    drive_interrupt.o(i.EXTI2_IRQHandler) refers to stm32f4xx_exti.o(i.EXTI_ClearITPendingBit) for EXTI_ClearITPendingBit
    drive_interrupt.o(i.EXTI3_IRQHandler) refers to stm32f4xx_exti.o(i.EXTI_GetITStatus) for EXTI_GetITStatus
    drive_interrupt.o(i.EXTI3_IRQHandler) refers to stm32f4xx_exti.o(i.EXTI_ClearITPendingBit) for EXTI_ClearITPendingBit
    drive_interrupt.o(i.EXTI4_IRQHandler) refers to stm32f4xx_exti.o(i.EXTI_GetITStatus) for EXTI_GetITStatus
    drive_interrupt.o(i.EXTI4_IRQHandler) refers to stm32f4xx_exti.o(i.EXTI_ClearITPendingBit) for EXTI_ClearITPendingBit
    drive_interrupt.o(i.EXTI9_5_IRQHandler) refers to stm32f4xx_exti.o(i.EXTI_GetITStatus) for EXTI_GetITStatus
    drive_interrupt.o(i.EXTI9_5_IRQHandler) refers to stm32f4xx_exti.o(i.EXTI_ClearITPendingBit) for EXTI_ClearITPendingBit
    drive_interrupt.o(i.TIM1_BRK_TIM9_IRQHandler) refers to stm32f4xx_tim.o(i.TIM_GetITStatus) for TIM_GetITStatus
    drive_interrupt.o(i.TIM1_BRK_TIM9_IRQHandler) refers to stm32f4xx_tim.o(i.TIM_ClearITPendingBit) for TIM_ClearITPendingBit
    drive_interrupt.o(i.TIM1_TRG_COM_TIM11_IRQHandler) refers to stm32f4xx_tim.o(i.TIM_GetITStatus) for TIM_GetITStatus
    drive_interrupt.o(i.TIM1_TRG_COM_TIM11_IRQHandler) refers to stm32f4xx_tim.o(i.TIM_ClearITPendingBit) for TIM_ClearITPendingBit
    drive_interrupt.o(i.TIM1_UP_TIM10_IRQHandler) refers to stm32f4xx_tim.o(i.TIM_GetITStatus) for TIM_GetITStatus
    drive_interrupt.o(i.TIM1_UP_TIM10_IRQHandler) refers to stm32f4xx_tim.o(i.TIM_ClearITPendingBit) for TIM_ClearITPendingBit
    drive_interrupt.o(i.TIM2_IRQHandler) refers to stm32f4xx_tim.o(i.TIM_GetITStatus) for TIM_GetITStatus
    drive_interrupt.o(i.TIM2_IRQHandler) refers to stm32f4xx_tim.o(i.TIM_ClearITPendingBit) for TIM_ClearITPendingBit
    drive_interrupt.o(i.TIM3_IRQHandler) refers to stm32f4xx_tim.o(i.TIM_GetITStatus) for TIM_GetITStatus
    drive_interrupt.o(i.TIM3_IRQHandler) refers to stm32f4xx_tim.o(i.TIM_ClearITPendingBit) for TIM_ClearITPendingBit
    drive_interrupt.o(i.TIM4_IRQHandler) refers to stm32f4xx_tim.o(i.TIM_GetITStatus) for TIM_GetITStatus
    drive_interrupt.o(i.TIM4_IRQHandler) refers to drive_adc.o(i.ADC_Result_Get) for ADC_Result_Get
    drive_interrupt.o(i.TIM4_IRQHandler) refers to stm32f4xx_tim.o(i.TIM_ClearITPendingBit) for TIM_ClearITPendingBit
    drive_interrupt.o(i.TIM5_IRQHandler) refers to stm32f4xx_tim.o(i.TIM_GetITStatus) for TIM_GetITStatus
    drive_interrupt.o(i.TIM5_IRQHandler) refers to stm32f4xx_tim.o(i.TIM_ClearITPendingBit) for TIM_ClearITPendingBit
    drive_interrupt.o(i.TIM6_DAC_IRQHandler) refers to stm32f4xx_tim.o(i.TIM_GetITStatus) for TIM_GetITStatus
    drive_interrupt.o(i.TIM6_DAC_IRQHandler) refers to stm32f4xx_tim.o(i.TIM_ClearITPendingBit) for TIM_ClearITPendingBit
    drive_interrupt.o(i.TIM7_IRQHandler) refers to stm32f4xx_tim.o(i.TIM_GetITStatus) for TIM_GetITStatus
    drive_interrupt.o(i.TIM7_IRQHandler) refers to stm32f4xx_tim.o(i.TIM_ClearITPendingBit) for TIM_ClearITPendingBit
    drive_interrupt.o(i.TIM8_BRK_TIM12_IRQHandler) refers to stm32f4xx_tim.o(i.TIM_GetITStatus) for TIM_GetITStatus
    drive_interrupt.o(i.TIM8_BRK_TIM12_IRQHandler) refers to stm32f4xx_tim.o(i.TIM_ClearITPendingBit) for TIM_ClearITPendingBit
    drive_interrupt.o(i.TIM8_TRG_COM_TIM14_IRQHandler) refers to stm32f4xx_tim.o(i.TIM_GetITStatus) for TIM_GetITStatus
    drive_interrupt.o(i.TIM8_TRG_COM_TIM14_IRQHandler) refers to stm32f4xx_tim.o(i.TIM_ClearITPendingBit) for TIM_ClearITPendingBit
    drive_interrupt.o(i.TIM8_UP_TIM13_IRQHandler) refers to stm32f4xx_tim.o(i.TIM_GetITStatus) for TIM_GetITStatus
    drive_interrupt.o(i.TIM8_UP_TIM13_IRQHandler) refers to stm32f4xx_tim.o(i.TIM_ClearITPendingBit) for TIM_ClearITPendingBit
    drive_timer.o(i.TIM10_Init) refers to stm32f4xx_rcc.o(i.RCC_APB2PeriphClockCmd) for RCC_APB2PeriphClockCmd
    drive_timer.o(i.TIM10_Init) refers to stm32f4xx_tim.o(i.TIM_TimeBaseInit) for TIM_TimeBaseInit
    drive_timer.o(i.TIM10_Init) refers to stm32f4xx_tim.o(i.TIM_ITConfig) for TIM_ITConfig
    drive_timer.o(i.TIM10_Init) refers to misc.o(i.NVIC_Init) for NVIC_Init
    drive_timer.o(i.TIM10_Init) refers to stm32f4xx_tim.o(i.TIM_Cmd) for TIM_Cmd
    drive_timer.o(i.TIM11_Init) refers to stm32f4xx_rcc.o(i.RCC_APB2PeriphClockCmd) for RCC_APB2PeriphClockCmd
    drive_timer.o(i.TIM11_Init) refers to stm32f4xx_tim.o(i.TIM_TimeBaseInit) for TIM_TimeBaseInit
    drive_timer.o(i.TIM11_Init) refers to stm32f4xx_tim.o(i.TIM_ITConfig) for TIM_ITConfig
    drive_timer.o(i.TIM11_Init) refers to misc.o(i.NVIC_Init) for NVIC_Init
    drive_timer.o(i.TIM11_Init) refers to stm32f4xx_tim.o(i.TIM_Cmd) for TIM_Cmd
    drive_timer.o(i.TIM12_Init) refers to stm32f4xx_rcc.o(i.RCC_APB1PeriphClockCmd) for RCC_APB1PeriphClockCmd
    drive_timer.o(i.TIM12_Init) refers to stm32f4xx_tim.o(i.TIM_TimeBaseInit) for TIM_TimeBaseInit
    drive_timer.o(i.TIM12_Init) refers to stm32f4xx_tim.o(i.TIM_ITConfig) for TIM_ITConfig
    drive_timer.o(i.TIM12_Init) refers to misc.o(i.NVIC_Init) for NVIC_Init
    drive_timer.o(i.TIM12_Init) refers to stm32f4xx_tim.o(i.TIM_Cmd) for TIM_Cmd
    drive_timer.o(i.TIM13_Init) refers to stm32f4xx_rcc.o(i.RCC_APB1PeriphClockCmd) for RCC_APB1PeriphClockCmd
    drive_timer.o(i.TIM13_Init) refers to stm32f4xx_tim.o(i.TIM_TimeBaseInit) for TIM_TimeBaseInit
    drive_timer.o(i.TIM13_Init) refers to stm32f4xx_tim.o(i.TIM_ITConfig) for TIM_ITConfig
    drive_timer.o(i.TIM13_Init) refers to misc.o(i.NVIC_Init) for NVIC_Init
    drive_timer.o(i.TIM13_Init) refers to stm32f4xx_tim.o(i.TIM_Cmd) for TIM_Cmd
    drive_timer.o(i.TIM14_Init) refers to stm32f4xx_rcc.o(i.RCC_APB1PeriphClockCmd) for RCC_APB1PeriphClockCmd
    drive_timer.o(i.TIM14_Init) refers to stm32f4xx_tim.o(i.TIM_TimeBaseInit) for TIM_TimeBaseInit
    drive_timer.o(i.TIM14_Init) refers to stm32f4xx_tim.o(i.TIM_ITConfig) for TIM_ITConfig
    drive_timer.o(i.TIM14_Init) refers to misc.o(i.NVIC_Init) for NVIC_Init
    drive_timer.o(i.TIM14_Init) refers to stm32f4xx_tim.o(i.TIM_Cmd) for TIM_Cmd
    drive_timer.o(i.TIM1_Init) refers to stm32f4xx_rcc.o(i.RCC_APB2PeriphClockCmd) for RCC_APB2PeriphClockCmd
    drive_timer.o(i.TIM1_Init) refers to stm32f4xx_tim.o(i.TIM_TimeBaseInit) for TIM_TimeBaseInit
    drive_timer.o(i.TIM1_Init) refers to stm32f4xx_tim.o(i.TIM_ITConfig) for TIM_ITConfig
    drive_timer.o(i.TIM1_Init) refers to stm32f4xx_tim.o(i.TIM_ARRPreloadConfig) for TIM_ARRPreloadConfig
    drive_timer.o(i.TIM1_Init) refers to stm32f4xx_tim.o(i.TIM_ClearITPendingBit) for TIM_ClearITPendingBit
    drive_timer.o(i.TIM1_Init) refers to misc.o(i.NVIC_Init) for NVIC_Init
    drive_timer.o(i.TIM1_Init) refers to stm32f4xx_tim.o(i.TIM_Cmd) for TIM_Cmd
    drive_timer.o(i.TIM2_Init) refers to stm32f4xx_rcc.o(i.RCC_APB1PeriphClockCmd) for RCC_APB1PeriphClockCmd
    drive_timer.o(i.TIM2_Init) refers to stm32f4xx_tim.o(i.TIM_TimeBaseInit) for TIM_TimeBaseInit
    drive_timer.o(i.TIM2_Init) refers to stm32f4xx_tim.o(i.TIM_ITConfig) for TIM_ITConfig
    drive_timer.o(i.TIM2_Init) refers to misc.o(i.NVIC_Init) for NVIC_Init
    drive_timer.o(i.TIM2_Init) refers to stm32f4xx_tim.o(i.TIM_Cmd) for TIM_Cmd
    drive_timer.o(i.TIM3_Init) refers to stm32f4xx_rcc.o(i.RCC_APB1PeriphClockCmd) for RCC_APB1PeriphClockCmd
    drive_timer.o(i.TIM3_Init) refers to stm32f4xx_tim.o(i.TIM_Cmd) for TIM_Cmd
    drive_timer.o(i.TIM3_Init) refers to stm32f4xx_tim.o(i.TIM_TimeBaseStructInit) for TIM_TimeBaseStructInit
    drive_timer.o(i.TIM3_Init) refers to stm32f4xx_tim.o(i.TIM_TimeBaseInit) for TIM_TimeBaseInit
    drive_timer.o(i.TIM3_Init) refers to stm32f4xx_tim.o(i.TIM_ARRPreloadConfig) for TIM_ARRPreloadConfig
    drive_timer.o(i.TIM3_Init) refers to stm32f4xx_tim.o(i.TIM_SelectOutputTrigger) for TIM_SelectOutputTrigger
    drive_timer.o(i.TIM4_Init) refers to stm32f4xx_rcc.o(i.RCC_APB1PeriphClockCmd) for RCC_APB1PeriphClockCmd
    drive_timer.o(i.TIM4_Init) refers to stm32f4xx_tim.o(i.TIM_TimeBaseInit) for TIM_TimeBaseInit
    drive_timer.o(i.TIM4_Init) refers to stm32f4xx_tim.o(i.TIM_ITConfig) for TIM_ITConfig
    drive_timer.o(i.TIM4_Init) refers to misc.o(i.NVIC_Init) for NVIC_Init
    drive_timer.o(i.TIM4_Init) refers to stm32f4xx_tim.o(i.TIM_Cmd) for TIM_Cmd
    drive_timer.o(i.TIM5_Init) refers to stm32f4xx_rcc.o(i.RCC_AHB1PeriphClockCmd) for RCC_AHB1PeriphClockCmd
    drive_timer.o(i.TIM5_Init) refers to stm32f4xx_rcc.o(i.RCC_APB1PeriphClockCmd) for RCC_APB1PeriphClockCmd
    drive_timer.o(i.TIM5_Init) refers to stm32f4xx_gpio.o(i.GPIO_Init) for GPIO_Init
    drive_timer.o(i.TIM5_Init) refers to stm32f4xx_gpio.o(i.GPIO_PinAFConfig) for GPIO_PinAFConfig
    drive_timer.o(i.TIM5_Init) refers to stm32f4xx_tim.o(i.TIM_TimeBaseInit) for TIM_TimeBaseInit
    drive_timer.o(i.TIM5_Init) refers to stm32f4xx_tim.o(i.TIM_ICInit) for TIM_ICInit
    drive_timer.o(i.TIM5_Init) refers to stm32f4xx_tim.o(i.TIM_ITConfig) for TIM_ITConfig
    drive_timer.o(i.TIM5_Init) refers to misc.o(i.NVIC_Init) for NVIC_Init
    drive_timer.o(i.TIM5_Init) refers to stm32f4xx_tim.o(i.TIM_Cmd) for TIM_Cmd
    drive_timer.o(i.TIM6_Init) refers to stm32f4xx_rcc.o(i.RCC_APB1PeriphClockCmd) for RCC_APB1PeriphClockCmd
    drive_timer.o(i.TIM6_Init) refers to stm32f4xx_tim.o(i.TIM_TimeBaseInit) for TIM_TimeBaseInit
    drive_timer.o(i.TIM6_Init) refers to stm32f4xx_tim.o(i.TIM_ITConfig) for TIM_ITConfig
    drive_timer.o(i.TIM6_Init) refers to misc.o(i.NVIC_Init) for NVIC_Init
    drive_timer.o(i.TIM6_Init) refers to stm32f4xx_tim.o(i.TIM_Cmd) for TIM_Cmd
    drive_timer.o(i.TIM7_Init) refers to stm32f4xx_rcc.o(i.RCC_APB1PeriphClockCmd) for RCC_APB1PeriphClockCmd
    drive_timer.o(i.TIM7_Init) refers to stm32f4xx_tim.o(i.TIM_TimeBaseInit) for TIM_TimeBaseInit
    drive_timer.o(i.TIM7_Init) refers to stm32f4xx_tim.o(i.TIM_ITConfig) for TIM_ITConfig
    drive_timer.o(i.TIM7_Init) refers to misc.o(i.NVIC_Init) for NVIC_Init
    drive_timer.o(i.TIM7_Init) refers to stm32f4xx_tim.o(i.TIM_Cmd) for TIM_Cmd
    drive_timer.o(i.TIM8_Init) refers to stm32f4xx_rcc.o(i.RCC_AHB1PeriphClockCmd) for RCC_AHB1PeriphClockCmd
    drive_timer.o(i.TIM8_Init) refers to stm32f4xx_gpio.o(i.GPIO_Init) for GPIO_Init
    drive_timer.o(i.TIM8_Init) refers to stm32f4xx_gpio.o(i.GPIO_ResetBits) for GPIO_ResetBits
    drive_timer.o(i.TIM8_Init) refers to stm32f4xx_rcc.o(i.RCC_APB2PeriphClockCmd) for RCC_APB2PeriphClockCmd
    drive_timer.o(i.TIM8_Init) refers to stm32f4xx_tim.o(i.TIM_TimeBaseInit) for TIM_TimeBaseInit
    drive_timer.o(i.TIM8_Init) refers to stm32f4xx_tim.o(i.TIM_ITConfig) for TIM_ITConfig
    drive_timer.o(i.TIM8_Init) refers to misc.o(i.NVIC_Init) for NVIC_Init
    drive_timer.o(i.TIM8_Init) refers to stm32f4xx_tim.o(i.TIM_Cmd) for TIM_Cmd
    drive_timer.o(i.TIM9_Init) refers to stm32f4xx_rcc.o(i.RCC_APB2PeriphClockCmd) for RCC_APB2PeriphClockCmd
    drive_timer.o(i.TIM9_Init) refers to stm32f4xx_tim.o(i.TIM_TimeBaseInit) for TIM_TimeBaseInit
    drive_timer.o(i.TIM9_Init) refers to stm32f4xx_tim.o(i.TIM_ITConfig) for TIM_ITConfig
    drive_timer.o(i.TIM9_Init) refers to misc.o(i.NVIC_Init) for NVIC_Init
    drive_timer.o(i.TIM9_Init) refers to stm32f4xx_tim.o(i.TIM_Cmd) for TIM_Cmd
    drive_touch.o(i.ADS_Read_AD) refers to drive_touch.o(i.ADS_Write_Byte) for ADS_Write_Byte
    drive_touch.o(i.ADS_Read_AD) refers to delay.o(i.delay_us) for delay_us
    drive_touch.o(i.ADS_Read_AD) refers to drive_touch.o(i.Delay) for Delay
    drive_touch.o(i.ADS_Read_XY) refers to drive_touch.o(i.ADS_Read_AD) for ADS_Read_AD
    drive_touch.o(i.ADS_Write_Byte) refers to drive_touch.o(i.Delay) for Delay
    drive_touch.o(i.GPIO_Configuration) refers to stm32f4xx_rcc.o(i.RCC_AHB1PeriphClockCmd) for RCC_AHB1PeriphClockCmd
    drive_touch.o(i.GPIO_Configuration) refers to stm32f4xx_gpio.o(i.GPIO_Init) for GPIO_Init
    drive_touch.o(i.TouchRead) refers to drive_touch.o(i.ADS_Read_XY) for ADS_Read_XY
    drive_touch.o(i.Touch_Init) refers to drive_touch.o(i.GPIO_Configuration) for GPIO_Configuration
    drive_touchkey.o(i.Clear_Show) refers to os_ui.o(i.OS_Rect_Draw) for OS_Rect_Draw
    drive_touchkey.o(i.Clear_Show) refers to drive_touchkey.o(.data) for shift_y
    drive_touchkey.o(i.TouchKey_Draw) refers to os_ui.o(i.OS_Rect_Draw) for OS_Rect_Draw
    drive_touchkey.o(i.TouchKey_Draw) refers to os_ui.o(i.OS_Line_Draw) for OS_Line_Draw
    drive_touchkey.o(i.TouchKey_Draw) refers to os_ui.o(i.OS_String_Show) for OS_String_Show
    drive_touchkey.o(i.TouchKey_Draw) refers to drive_touchkey.o(.data) for shift_y
    drive_touchkey.o(i.TouchKey_Scan) refers to app_touch.o(i.Touch_Judge) for Touch_Judge
    drive_touchkey.o(i.TouchKey_Scan) refers to drive_touchkey.o(i.Clear_Show) for Clear_Show
    drive_touchkey.o(i.TouchKey_Scan) refers to drive_touchkey.o(.data) for shift_y
    drive_touchkey.o(i.TouchKey_Scan) refers to drive_touchkey.o(.bss) for databuf
    drive_touchkey.o(i.TouchKey_Scan) refers to os_ui.o(i.OS_String_Show) for OS_String_Show
    drive_touchkey.o(i.TouchKey_Scan) refers to atof.o(i.__hardfp_atof) for __hardfp_atof
    drive_touchkey.o(i.TouchKey_Scan) refers to d2f.o(x$fpl$d2f) for __aeabi_d2f
    drive_adf4351.o(i.ADF4351Init) refers to drive_adf4351.o(i.ADF_Output_GPIOInit) for ADF_Output_GPIOInit
    drive_adf4351.o(i.ADF4351Init) refers to drive_adf4351.o(i.WriteToADF4351) for WriteToADF4351
    drive_adf4351.o(i.ADF4351WriteFreq) refers to f2d.o(x$fpl$f2d) for __aeabi_f2d
    drive_adf4351.o(i.ADF4351WriteFreq) refers to dleqf.o(x$fpl$dleqf) for __aeabi_cdcmple
    drive_adf4351.o(i.ADF4351WriteFreq) refers to drleqf.o(x$fpl$drleqf) for __aeabi_cdrcmple
    drive_adf4351.o(i.ADF4351WriteFreq) refers to dflt_clz.o(x$fpl$dflt) for __aeabi_i2d
    drive_adf4351.o(i.ADF4351WriteFreq) refers to drive_adf4351.o(i.WriteOneRegToADF4351) for WriteOneRegToADF4351
    drive_adf4351.o(i.ADF4351_Init_some) refers to drive_adf4351.o(i.WriteOneRegToADF4351) for WriteOneRegToADF4351
    drive_adf4351.o(i.ADF_Output_GPIOInit) refers to stm32f4xx_rcc.o(i.RCC_APB2PeriphClockCmd) for RCC_APB2PeriphClockCmd
    drive_adf4351.o(i.ADF_Output_GPIOInit) refers to stm32f4xx_gpio.o(i.GPIO_Init) for GPIO_Init
    drive_adf4351.o(i.ReadToADF4351) refers to drive_adf4351.o(i.ADF_Input_GPIOInit) for ADF_Input_GPIOInit
    drive_adf4351.o(i.ReadToADF4351) refers to delay.o(i.delay_us) for delay_us
    drive_adf4351.o(i.WriteOneRegToADF4351) refers to drive_adf4351.o(i.WriteToADF4351) for WriteToADF4351
    drive_adf4351.o(i.WriteToADF4351) refers to delay.o(i.delay_us) for delay_us
    drive_adl5336.o(i.ADL5336_Init) refers to stm32f4xx_rcc.o(i.RCC_AHB1PeriphClockCmd) for RCC_AHB1PeriphClockCmd
    drive_adl5336.o(i.ADL5336_Init) refers to stm32f4xx_gpio.o(i.GPIO_Init) for GPIO_Init
    drive_adl5336.o(i.ADL5336_Init) refers to delay.o(i.delay_us) for delay_us
    drive_adl5336.o(i.ADL5336_Init2) refers to stm32f4xx_rcc.o(i.RCC_AHB1PeriphClockCmd) for RCC_AHB1PeriphClockCmd
    drive_adl5336.o(i.ADL5336_Init2) refers to stm32f4xx_gpio.o(i.GPIO_Init) for GPIO_Init
    drive_adl5336.o(i.ADL5336_Init2) refers to delay.o(i.delay_us) for delay_us
    drive_adl5336.o(i.ADL5336_Read) refers to delay.o(i.delay_us) for delay_us
    drive_adl5336.o(i.ADL5336_Read2) refers to delay.o(i.delay_us) for delay_us
    drive_adl5336.o(i.ADL5336_Writer) refers to delay.o(i.delay_us) for delay_us
    drive_adl5336.o(i.ADL5336_Writer2) refers to delay.o(i.delay_us) for delay_us
    drive_ads1256.o(i.ADS1256RREG) refers to stm32f4xx_gpio.o(i.GPIO_ResetBits) for GPIO_ResetBits
    drive_ads1256.o(i.ADS1256RREG) refers to drive_ads1256.o(i.SPI_WriteByte) for SPI_WriteByte
    drive_ads1256.o(i.ADS1256RREG) refers to delay.o(i.delay_us) for delay_us
    drive_ads1256.o(i.ADS1256RREG) refers to drive_ads1256.o(i.SPI_ReadByte) for SPI_ReadByte
    drive_ads1256.o(i.ADS1256RREG) refers to stm32f4xx_gpio.o(i.GPIO_SetBits) for GPIO_SetBits
    drive_ads1256.o(i.ADS1256ReadData) refers to drive_ads1256.o(i.ADS1256WREG) for ADS1256WREG
    drive_ads1256.o(i.ADS1256ReadData) refers to stm32f4xx_gpio.o(i.GPIO_ResetBits) for GPIO_ResetBits
    drive_ads1256.o(i.ADS1256ReadData) refers to delay.o(i.delay_us) for delay_us
    drive_ads1256.o(i.ADS1256ReadData) refers to drive_ads1256.o(i.SPI_WriteByte) for SPI_WriteByte
    drive_ads1256.o(i.ADS1256ReadData) refers to drive_ads1256.o(i.SPI_ReadByte) for SPI_ReadByte
    drive_ads1256.o(i.ADS1256ReadData) refers to stm32f4xx_gpio.o(i.GPIO_SetBits) for GPIO_SetBits
    drive_ads1256.o(i.ADS1256WREG) refers to stm32f4xx_gpio.o(i.GPIO_ResetBits) for GPIO_ResetBits
    drive_ads1256.o(i.ADS1256WREG) refers to drive_ads1256.o(i.SPI_WriteByte) for SPI_WriteByte
    drive_ads1256.o(i.ADS1256WREG) refers to delay.o(i.delay_us) for delay_us
    drive_ads1256.o(i.ADS1256WREG) refers to stm32f4xx_gpio.o(i.GPIO_SetBits) for GPIO_SetBits
    drive_ads1256.o(i.ADS1256_Init) refers to drive_ads1256.o(i.Init_ADS1256_GPIO) for Init_ADS1256_GPIO
    drive_ads1256.o(i.ADS1256_Init) refers to delay.o(i.delay_ms) for delay_ms
    drive_ads1256.o(i.ADS1256_Init) refers to stm32f4xx_gpio.o(i.GPIO_ResetBits) for GPIO_ResetBits
    drive_ads1256.o(i.ADS1256_Init) refers to delay.o(i.delay_us) for delay_us
    drive_ads1256.o(i.ADS1256_Init) refers to drive_ads1256.o(i.SPI_WriteByte) for SPI_WriteByte
    drive_ads1256.o(i.ADS1256_Init) refers to drive_ads1256.o(i.ADS1256WREG) for ADS1256WREG
    drive_ads1256.o(i.ADS1256_Init) refers to stm32f4xx_gpio.o(i.GPIO_SetBits) for GPIO_SetBits
    drive_ads1256.o(i.Init_ADS1256_GPIO) refers to stm32f4xx_rcc.o(i.RCC_AHB1PeriphClockCmd) for RCC_AHB1PeriphClockCmd
    drive_ads1256.o(i.Init_ADS1256_GPIO) refers to stm32f4xx_gpio.o(i.GPIO_Init) for GPIO_Init
    drive_ads1256.o(i.Init_ADS1256_GPIO) refers to stm32f4xx_gpio.o(i.GPIO_SetBits) for GPIO_SetBits
    drive_ads1256.o(i.Moving_Average_Filter) refers to drive_ads1256.o(i.ADS1256ReadData) for ADS1256ReadData
    drive_ads1256.o(i.SPI_ReadByte) refers to stm32f4xx_gpio.o(i.GPIO_SetBits) for GPIO_SetBits
    drive_ads1256.o(i.SPI_ReadByte) refers to delay.o(i.delay_us) for delay_us
    drive_ads1256.o(i.SPI_ReadByte) refers to stm32f4xx_gpio.o(i.GPIO_ResetBits) for GPIO_ResetBits
    drive_ads1256.o(i.SPI_WriteByte) refers to delay.o(i.delay_us) for delay_us
    drive_ads1256.o(i.SPI_WriteByte) refers to stm32f4xx_gpio.o(i.GPIO_SetBits) for GPIO_SetBits
    drive_ads1256.o(i.SPI_WriteByte) refers to stm32f4xx_gpio.o(i.GPIO_ResetBits) for GPIO_ResetBits
    drive_communication.o(i.ESP8266_Client_Connect_Server) refers to _printf_percent.o(.ARM.Collect$$_printf_percent$$00000000) for _printf_percent
    drive_communication.o(i.ESP8266_Client_Connect_Server) refers to _printf_s.o(.ARM.Collect$$_printf_percent$$00000014) for _printf_s
    drive_communication.o(i.ESP8266_Client_Connect_Server) refers to _printf_str.o(.text) for _printf_str
    drive_communication.o(i.ESP8266_Client_Connect_Server) refers to noretval__2printf.o(.text) for __2printf
    drive_communication.o(i.ESP8266_Client_Connect_Server) refers to delay.o(i.delay_ms) for delay_ms
    drive_communication.o(i.ESP8266_Client_Connect_Server) refers to usart.o(i.atk_8266_send_cmd) for atk_8266_send_cmd
    drive_communication.o(i.ESP8266_Client_Connect_Server) refers to os_ui.o(i.OS_String_Show) for OS_String_Show
    drive_communication.o(i.ESP8266_Server_Init) refers to _printf_percent.o(.ARM.Collect$$_printf_percent$$00000000) for _printf_percent
    drive_communication.o(i.ESP8266_Server_Init) refers to _printf_s.o(.ARM.Collect$$_printf_percent$$00000014) for _printf_s
    drive_communication.o(i.ESP8266_Server_Init) refers to _printf_str.o(.text) for _printf_str
    drive_communication.o(i.ESP8266_Server_Init) refers to os_ui.o(i.OS_String_Show) for OS_String_Show
    drive_communication.o(i.ESP8266_Server_Init) refers to noretval__2printf.o(.text) for __2printf
    drive_communication.o(i.ESP8266_Server_Init) refers to delay.o(i.delay_ms) for delay_ms
    drive_communication.o(i.sendData) refers to _printf_percent.o(.ARM.Collect$$_printf_percent$$00000000) for _printf_percent
    drive_communication.o(i.sendData) refers to _printf_s.o(.ARM.Collect$$_printf_percent$$00000014) for _printf_s
    drive_communication.o(i.sendData) refers to _printf_str.o(.text) for _printf_str
    drive_communication.o(i.sendData) refers to drive_communication.o(i.crc_16) for crc_16
    drive_communication.o(i.sendData) refers to noretval__2printf.o(.text) for __2printf
    drive_communication.o(i.sendData) refers to delay.o(i.delay_us) for delay_us
    drive_communication.o(i.sendData) refers to drive_communication.o(i.usartSendData) for usartSendData
    drive_communication.o(i.sendData) refers to drive_communication.o(.bss) for communicationData
    drive_communication.o(i.usartSendData) refers to stm32f4xx_usart.o(i.USART_SendData) for USART_SendData
    drive_communication.o(i.usartSendData) refers to stm32f4xx_usart.o(i.USART_GetFlagStatus) for USART_GetFlagStatus
    character.o(i.LCD_GB1616) refers to tft_lcd.o(i.PutPixel) for PutPixel
    character.o(i.LCD_GB1616) refers to character.o(.constdata) for codeGB_16
    character.o(i.LCD_GB3232) refers to tft_lcd.o(i.PutPixel) for PutPixel
    character.o(i.LCD_GB3232) refers to character.o(.constdata) for codeGB_32
    character.o(i.LCD_GB4848) refers to tft_lcd.o(i.PutPixel) for PutPixel
    character.o(i.LCD_GB4848) refers to character.o(.constdata) for codeGB_48
    character.o(i.Show_Str32) refers to tft_lcd.o(i.LCD_ShowChar) for LCD_ShowChar
    character.o(i.Show_Str32) refers to character.o(i.LCD_GB3232) for LCD_GB3232
    character.o(i.Show_Str48) refers to tft_lcd.o(i.LCD_ShowChar) for LCD_ShowChar
    character.o(i.Show_Str48) refers to character.o(i.LCD_GB4848) for LCD_GB4848
    fonts.o(.data) refers to fonts.o(.constdata) for Font_1608
    fontupd.o(i.font_init) refers to w25q64.o(i.W25Q64_Init) for W25Q64_Init
    fontupd.o(i.font_init) refers to w25q64.o(i.W25Q64_Read) for W25Q64_Read
    fontupd.o(i.font_init) refers to delay.o(i.delay_ms) for delay_ms
    fontupd.o(i.font_init) refers to fontupd.o(.bss) for ftinfo
    spi.o(i.SPI1_Init) refers to stm32f4xx_rcc.o(i.RCC_AHB1PeriphClockCmd) for RCC_AHB1PeriphClockCmd
    spi.o(i.SPI1_Init) refers to stm32f4xx_rcc.o(i.RCC_APB2PeriphClockCmd) for RCC_APB2PeriphClockCmd
    spi.o(i.SPI1_Init) refers to stm32f4xx_gpio.o(i.GPIO_Init) for GPIO_Init
    spi.o(i.SPI1_Init) refers to stm32f4xx_gpio.o(i.GPIO_PinAFConfig) for GPIO_PinAFConfig
    spi.o(i.SPI1_Init) refers to stm32f4xx_rcc.o(i.RCC_APB2PeriphResetCmd) for RCC_APB2PeriphResetCmd
    spi.o(i.SPI1_Init) refers to stm32f4xx_spi.o(i.SPI_Init) for SPI_Init
    spi.o(i.SPI1_Init) refers to stm32f4xx_spi.o(i.SPI_Cmd) for SPI_Cmd
    spi.o(i.SPI1_Init) refers to spi.o(i.SPI1_ReadWriteByte) for SPI1_ReadWriteByte
    spi.o(i.SPI1_ReadWriteByte) refers to stm32f4xx_spi.o(i.SPI_I2S_GetFlagStatus) for SPI_I2S_GetFlagStatus
    spi.o(i.SPI1_ReadWriteByte) refers to stm32f4xx_spi.o(i.SPI_I2S_SendData) for SPI_I2S_SendData
    spi.o(i.SPI1_ReadWriteByte) refers to stm32f4xx_spi.o(i.SPI_I2S_ReceiveData) for SPI_I2S_ReceiveData
    spi.o(i.SPI1_SetSpeed) refers to stm32f4xx_spi.o(i.SPI_Cmd) for SPI_Cmd
    text.o(i.Get_HzMat) refers to w25q64.o(i.W25Q64_Read) for W25Q64_Read
    text.o(i.Get_HzMat) refers to fontupd.o(.bss) for ftinfo
    text.o(i.Show_Font) refers to text.o(i.Get_HzMat) for Get_HzMat
    text.o(i.Show_Font) refers to tft_lcd.o(i.PutPixel) for PutPixel
    tft_lcd.o(i.Display_Control) refers to tft_lcd.o(i.LCD_ShowChar) for LCD_ShowChar
    tft_lcd.o(i.Display_Control) refers to tft_lcd.o(.data) for LCD_Currentfonts
    tft_lcd.o(i.LCD_Appoint_Clear) refers to tft_lcd.o(i.LCD_SetCursor) for LCD_SetCursor
    tft_lcd.o(i.LCD_Appoint_Clear) refers to tft_lcd.o(i.LCD_WriteRAM_Prepare) for LCD_WriteRAM_Prepare
    tft_lcd.o(i.LCD_Clear) refers to tft_lcd.o(i.LCD_SetCursor) for LCD_SetCursor
    tft_lcd.o(i.LCD_Clear) refers to tft_lcd.o(i.LCD_WriteRAM_Prepare) for LCD_WriteRAM_Prepare
    tft_lcd.o(i.LCD_CtrlLinesConfig) refers to stm32f4xx_rcc.o(i.RCC_AHB1PeriphClockCmd) for RCC_AHB1PeriphClockCmd
    tft_lcd.o(i.LCD_CtrlLinesConfig) refers to stm32f4xx_gpio.o(i.GPIO_Init) for GPIO_Init
    tft_lcd.o(i.LCD_CtrlLinesConfig) refers to stm32f4xx_gpio.o(i.GPIO_PinAFConfig) for GPIO_PinAFConfig
    tft_lcd.o(i.LCD_Display0x) refers to tft_lcd.o(i.Display_Control) for Display_Control
    tft_lcd.o(i.LCD_DisplayNum) refers to tft_lcd.o(i.LCD_ShowChar) for LCD_ShowChar
    tft_lcd.o(i.LCD_DisplayNum) refers to tft_lcd.o(.data) for LCD_Currentfonts
    tft_lcd.o(i.LCD_DisplayStringLine) refers to tft_lcd.o(i.LCD_ShowChar) for LCD_ShowChar
    tft_lcd.o(i.LCD_DisplayStringLine) refers to tft_lcd.o(i.TFT_DispChar) for TFT_DispChar
    tft_lcd.o(i.LCD_DisplayStringLine) refers to tft_lcd.o(.data) for LCD_Currentfonts
    tft_lcd.o(i.LCD_Display_FloatNum) refers to dleqf.o(x$fpl$dleqf) for __aeabi_cdcmple
    tft_lcd.o(i.LCD_Display_FloatNum) refers to basic.o(x$fpl$basic) for __aeabi_dneg
    tft_lcd.o(i.LCD_Display_FloatNum) refers to tft_lcd.o(i.LCD_DisplayStringLine) for LCD_DisplayStringLine
    tft_lcd.o(i.LCD_Display_FloatNum) refers to dmul.o(x$fpl$dmul) for __aeabi_dmul
    tft_lcd.o(i.LCD_Display_FloatNum) refers to dfixull.o(x$fpl$llufromd) for __aeabi_d2ulz
    tft_lcd.o(i.LCD_Display_FloatNum) refers to lludivv7m.o(.text) for __aeabi_uldivmod
    tft_lcd.o(i.LCD_Display_FloatNum) refers to tft_lcd.o(i.LCD_GetFont) for LCD_GetFont
    tft_lcd.o(i.LCD_Display_FloatNum) refers to tft_lcd.o(i.LCD_DisplayNum) for LCD_DisplayNum
    tft_lcd.o(i.LCD_DrawCircle) refers to tft_lcd.o(i.LCD_SetCursor) for LCD_SetCursor
    tft_lcd.o(i.LCD_DrawCircle) refers to tft_lcd.o(i.LCD_WriteRAM_Prepare) for LCD_WriteRAM_Prepare
    tft_lcd.o(i.LCD_DrawCircle) refers to tft_lcd.o(i.LCD_WriteRAM) for LCD_WriteRAM
    tft_lcd.o(i.LCD_DrawCircle) refers to tft_lcd.o(.data) for TextColor
    tft_lcd.o(i.LCD_DrawCircleS) refers to tft_lcd.o(i.LCD_DrawCircle) for LCD_DrawCircle
    tft_lcd.o(i.LCD_DrawCircleS) refers to tft_lcd.o(.data) for TextColor
    tft_lcd.o(i.LCD_DrawLine) refers to tft_lcd.o(i.LCD_SetCursor) for LCD_SetCursor
    tft_lcd.o(i.LCD_DrawLine) refers to tft_lcd.o(i.LCD_WriteRAM_Prepare) for LCD_WriteRAM_Prepare
    tft_lcd.o(i.LCD_DrawLine) refers to tft_lcd.o(i.LCD_WriteRAM) for LCD_WriteRAM
    tft_lcd.o(i.LCD_DrawLine) refers to tft_lcd.o(.data) for TextColor
    tft_lcd.o(i.LCD_DrawPoint) refers to tft_lcd.o(i.LCD_REG_Select) for LCD_REG_Select
    tft_lcd.o(i.LCD_DrawPoint) refers to tft_lcd.o(i.LCD_WriteRAM) for LCD_WriteRAM
    tft_lcd.o(i.LCD_DrawPoint_4) refers to tft_lcd.o(i.LCD_REG_Select) for LCD_REG_Select
    tft_lcd.o(i.LCD_DrawPoint_4) refers to tft_lcd.o(i.LCD_WriteRAM) for LCD_WriteRAM
    tft_lcd.o(i.LCD_DrawRect) refers to tft_lcd.o(i.LCD_DrawLine) for LCD_DrawLine
    tft_lcd.o(i.LCD_DrawRectS) refers to tft_lcd.o(i.LCD_DrawuniLine) for LCD_DrawuniLine
    tft_lcd.o(i.LCD_DrawRectS) refers to tft_lcd.o(.data) for TextColor
    tft_lcd.o(i.LCD_DrawuniLine) refers to tft_lcd.o(i.PutPixel) for PutPixel
    tft_lcd.o(i.LCD_FSMCConfig) refers to stm32f4xx_rcc.o(i.RCC_AHB3PeriphClockCmd) for RCC_AHB3PeriphClockCmd
    tft_lcd.o(i.LCD_FSMCConfig) refers to stm32f4xx_fsmc.o(i.FSMC_NORSRAMInit) for FSMC_NORSRAMInit
    tft_lcd.o(i.LCD_FSMCConfig) refers to stm32f4xx_fsmc.o(i.FSMC_NORSRAMCmd) for FSMC_NORSRAMCmd
    tft_lcd.o(i.LCD_GetColors) refers to tft_lcd.o(.data) for TextColor
    tft_lcd.o(i.LCD_GetFont) refers to tft_lcd.o(.data) for LCD_Currentfonts
    tft_lcd.o(i.LCD_SetBackColor) refers to tft_lcd.o(.data) for BackColor
    tft_lcd.o(i.LCD_SetColors) refers to tft_lcd.o(.data) for TextColor
    tft_lcd.o(i.LCD_SetCursor) refers to tft_lcd.o(i.LCD_REG_Select) for LCD_REG_Select
    tft_lcd.o(i.LCD_SetCursor) refers to tft_lcd.o(i.LCD_WriteRAM) for LCD_WriteRAM
    tft_lcd.o(i.LCD_SetDisplayWindow) refers to tft_lcd.o(i.LCD_REG_Select) for LCD_REG_Select
    tft_lcd.o(i.LCD_SetDisplayWindow) refers to tft_lcd.o(i.LCD_WriteRAM) for LCD_WriteRAM
    tft_lcd.o(i.LCD_SetFont) refers to tft_lcd.o(.data) for LCD_Currentfonts
    tft_lcd.o(i.LCD_SetTextColor) refers to tft_lcd.o(.data) for TextColor
    tft_lcd.o(i.LCD_ShowChar) refers to tft_lcd.o(i.LCD_SetCursor) for LCD_SetCursor
    tft_lcd.o(i.LCD_ShowChar) refers to tft_lcd.o(i.LCD_WriteRAM_Prepare) for LCD_WriteRAM_Prepare
    tft_lcd.o(i.LCD_ShowChar) refers to tft_lcd.o(i.LCD_WriteRAM) for LCD_WriteRAM
    tft_lcd.o(i.LCD_ShowChar) refers to tft_lcd.o(.data) for LCD_Currentfonts
    tft_lcd.o(i.LCD_WeBMP_SIZE) refers to tft_lcd.o(i.LCD_WriteRAM_Prepare) for LCD_WriteRAM_Prepare
    tft_lcd.o(i.LCD_WeBMP_SIZE) refers to tft_lcd.o(i.LCD_WriteRAM) for LCD_WriteRAM
    tft_lcd.o(i.PutPixel) refers to tft_lcd.o(i.LCD_SetCursor) for LCD_SetCursor
    tft_lcd.o(i.PutPixel) refers to tft_lcd.o(i.LCD_WriteRAM_Prepare) for LCD_WriteRAM_Prepare
    tft_lcd.o(i.PutPixel) refers to tft_lcd.o(i.LCD_WriteRAM) for LCD_WriteRAM
    tft_lcd.o(i.PutPixel) refers to tft_lcd.o(.data) for TextColor
    tft_lcd.o(i.TFT_DispChar) refers to tft_lcd.o(i.LCD_SetCursor) for LCD_SetCursor
    tft_lcd.o(i.TFT_DispChar) refers to tft_lcd.o(i.LCD_WriteRAM_Prepare) for LCD_WriteRAM_Prepare
    tft_lcd.o(i.TFT_DispChar) refers to tft_lcd.o(.data) for LCD_Currentfonts
    tft_lcd.o(i.TFT_LCD_Init) refers to tft_lcd.o(i.LCD_CtrlLinesConfig) for LCD_CtrlLinesConfig
    tft_lcd.o(i.TFT_LCD_Init) refers to tft_lcd.o(i.LCD_FSMCConfig) for LCD_FSMCConfig
    tft_lcd.o(i.TFT_LCD_Init) refers to delay.o(i.delay_ms) for delay_ms
    tft_lcd.o(i.TFT_LCD_Init) refers to tft_lcd.o(i.LCD_REG_Select) for LCD_REG_Select
    tft_lcd.o(i.TFT_LCD_Init) refers to tft_lcd.o(i.LCD_WriteRAM) for LCD_WriteRAM
    tft_lcd.o(i.TFT_LCD_Init) refers to tft_lcd.o(i.LCD_SetDisplayWindow) for LCD_SetDisplayWindow
    tft_lcd.o(.data) refers to fonts.o(.data) for Font32x16
    w25q64.o(i.W25Q64_Erase_Chip) refers to w25q64.o(i.W25Q64_Write_Enable) for W25Q64_Write_Enable
    w25q64.o(i.W25Q64_Erase_Chip) refers to w25q64.o(i.W25Q64_Wait_Busy) for W25Q64_Wait_Busy
    w25q64.o(i.W25Q64_Erase_Chip) refers to stm32f4xx_gpio.o(i.GPIO_ResetBits) for GPIO_ResetBits
    w25q64.o(i.W25Q64_Erase_Chip) refers to spi.o(i.SPI1_ReadWriteByte) for SPI1_ReadWriteByte
    w25q64.o(i.W25Q64_Erase_Chip) refers to stm32f4xx_gpio.o(i.GPIO_SetBits) for GPIO_SetBits
    w25q64.o(i.W25Q64_Erase_Sector) refers to w25q64.o(i.W25Q64_Write_Enable) for W25Q64_Write_Enable
    w25q64.o(i.W25Q64_Erase_Sector) refers to w25q64.o(i.W25Q64_Wait_Busy) for W25Q64_Wait_Busy
    w25q64.o(i.W25Q64_Erase_Sector) refers to stm32f4xx_gpio.o(i.GPIO_ResetBits) for GPIO_ResetBits
    w25q64.o(i.W25Q64_Erase_Sector) refers to spi.o(i.SPI1_ReadWriteByte) for SPI1_ReadWriteByte
    w25q64.o(i.W25Q64_Erase_Sector) refers to stm32f4xx_gpio.o(i.GPIO_SetBits) for GPIO_SetBits
    w25q64.o(i.W25Q64_Init) refers to stm32f4xx_rcc.o(i.RCC_AHB1PeriphClockCmd) for RCC_AHB1PeriphClockCmd
    w25q64.o(i.W25Q64_Init) refers to stm32f4xx_gpio.o(i.GPIO_Init) for GPIO_Init
    w25q64.o(i.W25Q64_Init) refers to stm32f4xx_gpio.o(i.GPIO_SetBits) for GPIO_SetBits
    w25q64.o(i.W25Q64_Init) refers to spi.o(i.SPI1_Init) for SPI1_Init
    w25q64.o(i.W25Q64_Init) refers to spi.o(i.SPI1_SetSpeed) for SPI1_SetSpeed
    w25q64.o(i.W25Q64_Init) refers to w25q64.o(i.W25Q64_ReadID) for W25Q64_ReadID
    w25q64.o(i.W25Q64_Init) refers to w25q64.o(.data) for W25Q64_TYPE
    w25q64.o(i.W25Q64_PowerDown) refers to stm32f4xx_gpio.o(i.GPIO_ResetBits) for GPIO_ResetBits
    w25q64.o(i.W25Q64_PowerDown) refers to spi.o(i.SPI1_ReadWriteByte) for SPI1_ReadWriteByte
    w25q64.o(i.W25Q64_PowerDown) refers to stm32f4xx_gpio.o(i.GPIO_SetBits) for GPIO_SetBits
    w25q64.o(i.W25Q64_PowerDown) refers to delay.o(i.delay_us) for delay_us
    w25q64.o(i.W25Q64_Read) refers to stm32f4xx_gpio.o(i.GPIO_ResetBits) for GPIO_ResetBits
    w25q64.o(i.W25Q64_Read) refers to spi.o(i.SPI1_ReadWriteByte) for SPI1_ReadWriteByte
    w25q64.o(i.W25Q64_Read) refers to stm32f4xx_gpio.o(i.GPIO_SetBits) for GPIO_SetBits
    w25q64.o(i.W25Q64_ReadID) refers to stm32f4xx_gpio.o(i.GPIO_ResetBits) for GPIO_ResetBits
    w25q64.o(i.W25Q64_ReadID) refers to spi.o(i.SPI1_ReadWriteByte) for SPI1_ReadWriteByte
    w25q64.o(i.W25Q64_ReadID) refers to stm32f4xx_gpio.o(i.GPIO_SetBits) for GPIO_SetBits
    w25q64.o(i.W25Q64_ReadSR) refers to stm32f4xx_gpio.o(i.GPIO_ResetBits) for GPIO_ResetBits
    w25q64.o(i.W25Q64_ReadSR) refers to spi.o(i.SPI1_ReadWriteByte) for SPI1_ReadWriteByte
    w25q64.o(i.W25Q64_ReadSR) refers to stm32f4xx_gpio.o(i.GPIO_SetBits) for GPIO_SetBits
    w25q64.o(i.W25Q64_WAKEUP) refers to stm32f4xx_gpio.o(i.GPIO_ResetBits) for GPIO_ResetBits
    w25q64.o(i.W25Q64_WAKEUP) refers to spi.o(i.SPI1_ReadWriteByte) for SPI1_ReadWriteByte
    w25q64.o(i.W25Q64_WAKEUP) refers to stm32f4xx_gpio.o(i.GPIO_SetBits) for GPIO_SetBits
    w25q64.o(i.W25Q64_WAKEUP) refers to delay.o(i.delay_us) for delay_us
    w25q64.o(i.W25Q64_Wait_Busy) refers to w25q64.o(i.W25Q64_ReadSR) for W25Q64_ReadSR
    w25q64.o(i.W25Q64_Write) refers to w25q64.o(i.W25Q64_Read) for W25Q64_Read
    w25q64.o(i.W25Q64_Write) refers to w25q64.o(i.W25Q64_Erase_Sector) for W25Q64_Erase_Sector
    w25q64.o(i.W25Q64_Write) refers to w25q64.o(i.W25Q64_Write_NoCheck) for W25Q64_Write_NoCheck
    w25q64.o(i.W25Q64_Write) refers to w25q64.o(.bss) for W25Q64_BUFFER
    w25q64.o(i.W25Q64_Write_Disable) refers to stm32f4xx_gpio.o(i.GPIO_ResetBits) for GPIO_ResetBits
    w25q64.o(i.W25Q64_Write_Disable) refers to spi.o(i.SPI1_ReadWriteByte) for SPI1_ReadWriteByte
    w25q64.o(i.W25Q64_Write_Disable) refers to stm32f4xx_gpio.o(i.GPIO_SetBits) for GPIO_SetBits
    w25q64.o(i.W25Q64_Write_Enable) refers to stm32f4xx_gpio.o(i.GPIO_ResetBits) for GPIO_ResetBits
    w25q64.o(i.W25Q64_Write_Enable) refers to spi.o(i.SPI1_ReadWriteByte) for SPI1_ReadWriteByte
    w25q64.o(i.W25Q64_Write_Enable) refers to stm32f4xx_gpio.o(i.GPIO_SetBits) for GPIO_SetBits
    w25q64.o(i.W25Q64_Write_NoCheck) refers to w25q64.o(i.W25Q64_Write_Page) for W25Q64_Write_Page
    w25q64.o(i.W25Q64_Write_Page) refers to w25q64.o(i.W25Q64_Write_Enable) for W25Q64_Write_Enable
    w25q64.o(i.W25Q64_Write_Page) refers to stm32f4xx_gpio.o(i.GPIO_ResetBits) for GPIO_ResetBits
    w25q64.o(i.W25Q64_Write_Page) refers to spi.o(i.SPI1_ReadWriteByte) for SPI1_ReadWriteByte
    w25q64.o(i.W25Q64_Write_Page) refers to stm32f4xx_gpio.o(i.GPIO_SetBits) for GPIO_SetBits
    w25q64.o(i.W25Q64_Write_Page) refers to w25q64.o(i.W25Q64_Wait_Busy) for W25Q64_Wait_Busy
    w25q64.o(i.W25Q64_Write_SR) refers to stm32f4xx_gpio.o(i.GPIO_ResetBits) for GPIO_ResetBits
    w25q64.o(i.W25Q64_Write_SR) refers to spi.o(i.SPI1_ReadWriteByte) for SPI1_ReadWriteByte
    w25q64.o(i.W25Q64_Write_SR) refers to stm32f4xx_gpio.o(i.GPIO_SetBits) for GPIO_SetBits
    stm32f4xx_adc.o(i.ADC_DeInit) refers to stm32f4xx_rcc.o(i.RCC_APB2PeriphResetCmd) for RCC_APB2PeriphResetCmd
    stm32f4xx_dac.o(i.DAC_DeInit) refers to stm32f4xx_rcc.o(i.RCC_APB1PeriphResetCmd) for RCC_APB1PeriphResetCmd
    stm32f4xx_flash.o(i.FLASH_EraseAllBank1Sectors) refers to stm32f4xx_flash.o(i.FLASH_WaitForLastOperation) for FLASH_WaitForLastOperation
    stm32f4xx_flash.o(i.FLASH_EraseAllBank2Sectors) refers to stm32f4xx_flash.o(i.FLASH_WaitForLastOperation) for FLASH_WaitForLastOperation
    stm32f4xx_flash.o(i.FLASH_EraseAllSectors) refers to stm32f4xx_flash.o(i.FLASH_WaitForLastOperation) for FLASH_WaitForLastOperation
    stm32f4xx_flash.o(i.FLASH_EraseSector) refers to stm32f4xx_flash.o(i.FLASH_WaitForLastOperation) for FLASH_WaitForLastOperation
    stm32f4xx_flash.o(i.FLASH_OB_Launch) refers to stm32f4xx_flash.o(i.FLASH_WaitForLastOperation) for FLASH_WaitForLastOperation
    stm32f4xx_flash.o(i.FLASH_OB_PCROP1Config) refers to stm32f4xx_flash.o(i.FLASH_WaitForLastOperation) for FLASH_WaitForLastOperation
    stm32f4xx_flash.o(i.FLASH_OB_PCROPConfig) refers to stm32f4xx_flash.o(i.FLASH_WaitForLastOperation) for FLASH_WaitForLastOperation
    stm32f4xx_flash.o(i.FLASH_OB_RDPConfig) refers to stm32f4xx_flash.o(i.FLASH_WaitForLastOperation) for FLASH_WaitForLastOperation
    stm32f4xx_flash.o(i.FLASH_OB_UserConfig) refers to stm32f4xx_flash.o(i.FLASH_WaitForLastOperation) for FLASH_WaitForLastOperation
    stm32f4xx_flash.o(i.FLASH_OB_WRP1Config) refers to stm32f4xx_flash.o(i.FLASH_WaitForLastOperation) for FLASH_WaitForLastOperation
    stm32f4xx_flash.o(i.FLASH_OB_WRPConfig) refers to stm32f4xx_flash.o(i.FLASH_WaitForLastOperation) for FLASH_WaitForLastOperation
    stm32f4xx_flash.o(i.FLASH_ProgramByte) refers to stm32f4xx_flash.o(i.FLASH_WaitForLastOperation) for FLASH_WaitForLastOperation
    stm32f4xx_flash.o(i.FLASH_ProgramDoubleWord) refers to stm32f4xx_flash.o(i.FLASH_WaitForLastOperation) for FLASH_WaitForLastOperation
    stm32f4xx_flash.o(i.FLASH_ProgramHalfWord) refers to stm32f4xx_flash.o(i.FLASH_WaitForLastOperation) for FLASH_WaitForLastOperation
    stm32f4xx_flash.o(i.FLASH_ProgramWord) refers to stm32f4xx_flash.o(i.FLASH_WaitForLastOperation) for FLASH_WaitForLastOperation
    stm32f4xx_flash.o(i.FLASH_WaitForLastOperation) refers to stm32f4xx_flash.o(i.FLASH_GetStatus) for FLASH_GetStatus
    stm32f4xx_fsmc.o(i.FSMC_NORSRAMStructInit) refers to stm32f4xx_fsmc.o(.constdata) for FSMC_DefaultTimingStruct
    stm32f4xx_gpio.o(i.GPIO_DeInit) refers to stm32f4xx_rcc.o(i.RCC_AHB1PeriphResetCmd) for RCC_AHB1PeriphResetCmd
    stm32f4xx_i2c.o(i.I2C_DeInit) refers to stm32f4xx_rcc.o(i.RCC_APB1PeriphResetCmd) for RCC_APB1PeriphResetCmd
    stm32f4xx_i2c.o(i.I2C_Init) refers to stm32f4xx_rcc.o(i.RCC_GetClocksFreq) for RCC_GetClocksFreq
    stm32f4xx_rcc.o(i.RCC_GetClocksFreq) refers to stm32f4xx_rcc.o(.data) for APBAHBPrescTable
    stm32f4xx_rcc.o(i.RCC_WaitForHSEStartUp) refers to stm32f4xx_rcc.o(i.RCC_GetFlagStatus) for RCC_GetFlagStatus
    stm32f4xx_tim.o(i.TIM_DeInit) refers to stm32f4xx_rcc.o(i.RCC_APB2PeriphResetCmd) for RCC_APB2PeriphResetCmd
    stm32f4xx_tim.o(i.TIM_DeInit) refers to stm32f4xx_rcc.o(i.RCC_APB1PeriphResetCmd) for RCC_APB1PeriphResetCmd
    stm32f4xx_tim.o(i.TIM_ETRClockMode1Config) refers to stm32f4xx_tim.o(i.TIM_ETRConfig) for TIM_ETRConfig
    stm32f4xx_tim.o(i.TIM_ETRClockMode2Config) refers to stm32f4xx_tim.o(i.TIM_ETRConfig) for TIM_ETRConfig
    stm32f4xx_tim.o(i.TIM_ICInit) refers to stm32f4xx_tim.o(i.TI1_Config) for TI1_Config
    stm32f4xx_tim.o(i.TIM_ICInit) refers to stm32f4xx_tim.o(i.TIM_SetIC1Prescaler) for TIM_SetIC1Prescaler
    stm32f4xx_tim.o(i.TIM_ICInit) refers to stm32f4xx_tim.o(i.TI2_Config) for TI2_Config
    stm32f4xx_tim.o(i.TIM_ICInit) refers to stm32f4xx_tim.o(i.TIM_SetIC2Prescaler) for TIM_SetIC2Prescaler
    stm32f4xx_tim.o(i.TIM_ICInit) refers to stm32f4xx_tim.o(i.TI3_Config) for TI3_Config
    stm32f4xx_tim.o(i.TIM_ICInit) refers to stm32f4xx_tim.o(i.TIM_SetIC3Prescaler) for TIM_SetIC3Prescaler
    stm32f4xx_tim.o(i.TIM_ICInit) refers to stm32f4xx_tim.o(i.TI4_Config) for TI4_Config
    stm32f4xx_tim.o(i.TIM_ICInit) refers to stm32f4xx_tim.o(i.TIM_SetIC4Prescaler) for TIM_SetIC4Prescaler
    stm32f4xx_tim.o(i.TIM_ITRxExternalClockConfig) refers to stm32f4xx_tim.o(i.TIM_SelectInputTrigger) for TIM_SelectInputTrigger
    stm32f4xx_tim.o(i.TIM_PWMIConfig) refers to stm32f4xx_tim.o(i.TI1_Config) for TI1_Config
    stm32f4xx_tim.o(i.TIM_PWMIConfig) refers to stm32f4xx_tim.o(i.TIM_SetIC1Prescaler) for TIM_SetIC1Prescaler
    stm32f4xx_tim.o(i.TIM_PWMIConfig) refers to stm32f4xx_tim.o(i.TI2_Config) for TI2_Config
    stm32f4xx_tim.o(i.TIM_PWMIConfig) refers to stm32f4xx_tim.o(i.TIM_SetIC2Prescaler) for TIM_SetIC2Prescaler
    stm32f4xx_tim.o(i.TIM_TIxExternalClockConfig) refers to stm32f4xx_tim.o(i.TI2_Config) for TI2_Config
    stm32f4xx_tim.o(i.TIM_TIxExternalClockConfig) refers to stm32f4xx_tim.o(i.TI1_Config) for TI1_Config
    stm32f4xx_tim.o(i.TIM_TIxExternalClockConfig) refers to stm32f4xx_tim.o(i.TIM_SelectInputTrigger) for TIM_SelectInputTrigger
    stm32f4xx_usart.o(i.USART_DeInit) refers to stm32f4xx_rcc.o(i.RCC_APB2PeriphResetCmd) for RCC_APB2PeriphResetCmd
    stm32f4xx_usart.o(i.USART_DeInit) refers to stm32f4xx_rcc.o(i.RCC_APB1PeriphResetCmd) for RCC_APB1PeriphResetCmd
    stm32f4xx_usart.o(i.USART_Init) refers to stm32f4xx_rcc.o(i.RCC_GetClocksFreq) for RCC_GetClocksFreq
    stm32f4xx_spi.o(i.SPI_I2S_DeInit) refers to stm32f4xx_rcc.o(i.RCC_APB2PeriphResetCmd) for RCC_APB2PeriphResetCmd
    stm32f4xx_spi.o(i.SPI_I2S_DeInit) refers to stm32f4xx_rcc.o(i.RCC_APB1PeriphResetCmd) for RCC_APB1PeriphResetCmd
    stm32f4xx_syscfg.o(i.SYSCFG_DeInit) refers to stm32f4xx_rcc.o(i.RCC_APB2PeriphResetCmd) for RCC_APB2PeriphResetCmd
    stm32f4xx_can.o(i.CAN_DeInit) refers to stm32f4xx_rcc.o(i.RCC_APB1PeriphResetCmd) for RCC_APB1PeriphResetCmd
    stm32f4xx_can.o(i.CAN_GetITStatus) refers to stm32f4xx_can.o(i.CheckITStatus) for CheckITStatus
    system_stm32f4xx.o(i.SystemCoreClockUpdate) refers to system_stm32f4xx.o(.data) for SystemCoreClock
    system_stm32f4xx.o(i.SystemInit) refers to system_stm32f4xx.o(i.SetSysClock) for SetSysClock
    startup_stm32f40_41xxx.o(STACK) refers (Special) to heapauxi.o(.text) for __use_two_region_memory
    startup_stm32f40_41xxx.o(HEAP) refers (Special) to heapauxi.o(.text) for __use_two_region_memory
    startup_stm32f40_41xxx.o(RESET) refers (Special) to heapauxi.o(.text) for __use_two_region_memory
    startup_stm32f40_41xxx.o(RESET) refers to startup_stm32f40_41xxx.o(STACK) for __initial_sp
    startup_stm32f40_41xxx.o(RESET) refers to startup_stm32f40_41xxx.o(.text) for Reset_Handler
    startup_stm32f40_41xxx.o(RESET) refers to stm32f4xx_it.o(i.NMI_Handler) for NMI_Handler
    startup_stm32f40_41xxx.o(RESET) refers to stm32f4xx_it.o(i.HardFault_Handler) for HardFault_Handler
    startup_stm32f40_41xxx.o(RESET) refers to stm32f4xx_it.o(i.MemManage_Handler) for MemManage_Handler
    startup_stm32f40_41xxx.o(RESET) refers to stm32f4xx_it.o(i.BusFault_Handler) for BusFault_Handler
    startup_stm32f40_41xxx.o(RESET) refers to stm32f4xx_it.o(i.UsageFault_Handler) for UsageFault_Handler
    startup_stm32f40_41xxx.o(RESET) refers to stm32f4xx_it.o(i.SVC_Handler) for SVC_Handler
    startup_stm32f40_41xxx.o(RESET) refers to stm32f4xx_it.o(i.DebugMon_Handler) for DebugMon_Handler
    startup_stm32f40_41xxx.o(RESET) refers to core.o(CODE) for PendSV_Handler
    startup_stm32f40_41xxx.o(RESET) refers to os_cpu.o(i.SysTick_Handler) for SysTick_Handler
    startup_stm32f40_41xxx.o(RESET) refers to drive_interrupt.o(i.EXTI0_IRQHandler) for EXTI0_IRQHandler
    startup_stm32f40_41xxx.o(RESET) refers to drive_interrupt.o(i.EXTI1_IRQHandler) for EXTI1_IRQHandler
    startup_stm32f40_41xxx.o(RESET) refers to drive_interrupt.o(i.EXTI2_IRQHandler) for EXTI2_IRQHandler
    startup_stm32f40_41xxx.o(RESET) refers to drive_interrupt.o(i.EXTI3_IRQHandler) for EXTI3_IRQHandler
    startup_stm32f40_41xxx.o(RESET) refers to drive_interrupt.o(i.EXTI4_IRQHandler) for EXTI4_IRQHandler
    startup_stm32f40_41xxx.o(RESET) refers to drive_interrupt.o(i.EXTI9_5_IRQHandler) for EXTI9_5_IRQHandler
    startup_stm32f40_41xxx.o(RESET) refers to drive_interrupt.o(i.TIM1_BRK_TIM9_IRQHandler) for TIM1_BRK_TIM9_IRQHandler
    startup_stm32f40_41xxx.o(RESET) refers to drive_interrupt.o(i.TIM1_UP_TIM10_IRQHandler) for TIM1_UP_TIM10_IRQHandler
    startup_stm32f40_41xxx.o(RESET) refers to drive_interrupt.o(i.TIM1_TRG_COM_TIM11_IRQHandler) for TIM1_TRG_COM_TIM11_IRQHandler
    startup_stm32f40_41xxx.o(RESET) refers to drive_interrupt.o(i.TIM2_IRQHandler) for TIM2_IRQHandler
    startup_stm32f40_41xxx.o(RESET) refers to drive_interrupt.o(i.TIM3_IRQHandler) for TIM3_IRQHandler
    startup_stm32f40_41xxx.o(RESET) refers to drive_interrupt.o(i.TIM4_IRQHandler) for TIM4_IRQHandler
    startup_stm32f40_41xxx.o(RESET) refers to usart.o(i.USART1_IRQHandler) for USART1_IRQHandler
    startup_stm32f40_41xxx.o(RESET) refers to drive_interrupt.o(i.EXTI15_10_IRQHandler) for EXTI15_10_IRQHandler
    startup_stm32f40_41xxx.o(RESET) refers to drive_interrupt.o(i.TIM8_BRK_TIM12_IRQHandler) for TIM8_BRK_TIM12_IRQHandler
    startup_stm32f40_41xxx.o(RESET) refers to drive_interrupt.o(i.TIM8_UP_TIM13_IRQHandler) for TIM8_UP_TIM13_IRQHandler
    startup_stm32f40_41xxx.o(RESET) refers to drive_interrupt.o(i.TIM8_TRG_COM_TIM14_IRQHandler) for TIM8_TRG_COM_TIM14_IRQHandler
    startup_stm32f40_41xxx.o(RESET) refers to drive_interrupt.o(i.TIM5_IRQHandler) for TIM5_IRQHandler
    startup_stm32f40_41xxx.o(RESET) refers to drive_interrupt.o(i.TIM6_DAC_IRQHandler) for TIM6_DAC_IRQHandler
    startup_stm32f40_41xxx.o(RESET) refers to drive_interrupt.o(i.TIM7_IRQHandler) for TIM7_IRQHandler
    startup_stm32f40_41xxx.o(.text) refers (Special) to heapauxi.o(.text) for __use_two_region_memory
    startup_stm32f40_41xxx.o(.text) refers to system_stm32f4xx.o(i.SystemInit) for SystemInit
    startup_stm32f40_41xxx.o(.text) refers to __main.o(!!!main) for __main
    startup_stm32f40_41xxx.o(.text) refers to startup_stm32f40_41xxx.o(HEAP) for Heap_Mem
    startup_stm32f40_41xxx.o(.text) refers to startup_stm32f40_41xxx.o(STACK) for Stack_Mem
    use_no_semi_2.o(.text) refers (Special) to use_no_semi.o(.text) for __use_no_semihosting_swi
    __2printf.o(.text) refers to _printf_char_file.o(.text) for _printf_char_file
    __2printf.o(.text) refers to usart.o(.data) for __stdout
    __2sprintf.o(.text) refers to _printf_char_common.o(.text) for _printf_char_common
    __2sprintf.o(.text) refers to _sputc.o(.text) for _sputc
    noretval__2printf.o(.text) refers to _printf_char_file.o(.text) for _printf_char_file
    noretval__2printf.o(.text) refers to usart.o(.data) for __stdout
    noretval__2sprintf.o(.text) refers to _printf_char_common.o(.text) for _printf_char_common
    noretval__2sprintf.o(.text) refers to _sputc.o(.text) for _sputc
    __printf.o(.text) refers to _printf_percent.o(.ARM.Collect$$_printf_percent$$00000000) for _printf_percent
    _printf_str.o(.text) refers (Special) to _printf_char.o(.text) for _printf_cs_common
    _printf_str.o(.text) refers (Weak) to _printf_pad.o(.text) for _printf_pre_padding
    _printf_str.o(.text) refers (Weak) to _printf_pad.o(.text) for _printf_post_padding
    __printf_flags.o(.text) refers to _printf_percent.o(.ARM.Collect$$_printf_percent$$00000000) for _printf_percent
    __printf_flags.o(.text) refers to __printf_flags.o(.constdata) for .constdata
    __printf_ss.o(.text) refers to _printf_percent.o(.ARM.Collect$$_printf_percent$$00000000) for _printf_percent
    __printf_flags_ss.o(.text) refers to _printf_percent.o(.ARM.Collect$$_printf_percent$$00000000) for _printf_percent
    __printf_flags_ss.o(.text) refers to __printf_flags_ss.o(.constdata) for .constdata
    __printf_wp.o(.text) refers to __printf_wp.o(i._is_digit) for _is_digit
    __printf_wp.o(.text) refers to _printf_percent.o(.ARM.Collect$$_printf_percent$$00000000) for _printf_percent
    __printf_flags_wp.o(.text) refers to __printf_wp.o(i._is_digit) for _is_digit
    __printf_flags_wp.o(.text) refers to _printf_percent.o(.ARM.Collect$$_printf_percent$$00000000) for _printf_percent
    __printf_flags_wp.o(.text) refers to __printf_flags_wp.o(.constdata) for .constdata
    __printf_ss_wp.o(.text) refers to __printf_wp.o(i._is_digit) for _is_digit
    __printf_ss_wp.o(.text) refers to _printf_percent.o(.ARM.Collect$$_printf_percent$$00000000) for _printf_percent
    __printf_flags_ss_wp.o(.text) refers to __printf_wp.o(i._is_digit) for _is_digit
    __printf_flags_ss_wp.o(.text) refers to _printf_percent.o(.ARM.Collect$$_printf_percent$$00000000) for _printf_percent
    __printf_flags_ss_wp.o(.text) refers to __printf_flags_ss_wp.o(.constdata) for .constdata
    _printf_s.o(.ARM.Collect$$_printf_percent$$00000014) refers (Weak) to _printf_char.o(.text) for _printf_string
    _printf_f.o(.ARM.Collect$$_printf_percent$$00000003) refers (Weak) to printf1.o(x$fpl$printf1) for _printf_fp_dec
    _printf_e.o(.ARM.Collect$$_printf_percent$$00000004) refers (Weak) to printf1.o(x$fpl$printf1) for _printf_fp_dec
    _printf_g.o(.ARM.Collect$$_printf_percent$$00000005) refers (Weak) to printf1.o(x$fpl$printf1) for _printf_fp_dec
    _printf_a.o(.ARM.Collect$$_printf_percent$$00000006) refers (Weak) to printf2.o(x$fpl$printf2) for _printf_fp_hex
    _printf_percent.o(.ARM.Collect$$_printf_percent$$00000000) refers (Special) to _printf_percent_end.o(.ARM.Collect$$_printf_percent$$00000017) for _printf_percent_end
    __main.o(!!!main) refers to __rtentry.o(.ARM.Collect$$rtentry$$00000000) for __rt_entry
    basic.o(x$fpl$basic) refers (Special) to usenofp.o(x$fpl$usenofp) for __I$use$fp
    d2f.o(x$fpl$d2f) refers (Special) to usenofp.o(x$fpl$usenofp) for __I$use$fp
    d2f.o(x$fpl$d2f) refers to fretinf.o(x$fpl$fretinf) for __fpl_fretinf
    d2f.o(x$fpl$d2f) refers to dnaninf.o(x$fpl$dnaninf) for __fpl_dnaninf
    daddsub_clz.o(x$fpl$dadd) refers (Special) to usenofp.o(x$fpl$usenofp) for __I$use$fp
    daddsub_clz.o(x$fpl$dadd) refers to daddsub_clz.o(x$fpl$dsub) for _dsub1
    daddsub_clz.o(x$fpl$dadd) refers to dretinf.o(x$fpl$dretinf) for __fpl_dretinf
    daddsub_clz.o(x$fpl$dadd) refers to dnaninf.o(x$fpl$dnaninf) for __fpl_dnaninf
    daddsub_clz.o(x$fpl$drsb) refers (Special) to usenofp.o(x$fpl$usenofp) for __I$use$fp
    daddsub_clz.o(x$fpl$drsb) refers to daddsub_clz.o(x$fpl$dadd) for _dadd1
    daddsub_clz.o(x$fpl$drsb) refers to daddsub_clz.o(x$fpl$dsub) for _dsub1
    daddsub_clz.o(x$fpl$dsub) refers (Special) to usenofp.o(x$fpl$usenofp) for __I$use$fp
    daddsub_clz.o(x$fpl$dsub) refers to daddsub_clz.o(x$fpl$dadd) for _dadd1
    daddsub_clz.o(x$fpl$dsub) refers to dnaninf.o(x$fpl$dnaninf) for __fpl_dnaninf
    ddiv.o(x$fpl$drdiv) refers (Special) to usenofp.o(x$fpl$usenofp) for __I$use$fp
    ddiv.o(x$fpl$drdiv) refers to ddiv.o(x$fpl$ddiv) for ddiv_entry
    ddiv.o(x$fpl$ddiv) refers (Special) to usenofp.o(x$fpl$usenofp) for __I$use$fp
    ddiv.o(x$fpl$ddiv) refers to dretinf.o(x$fpl$dretinf) for __fpl_dretinf
    ddiv.o(x$fpl$ddiv) refers to dnaninf.o(x$fpl$dnaninf) for __fpl_dnaninf
    deqf.o(x$fpl$deqf) refers (Special) to usenofp.o(x$fpl$usenofp) for __I$use$fp
    deqf.o(x$fpl$deqf) refers to dnaninf.o(x$fpl$dnaninf) for __fpl_dnaninf
    deqf.o(x$fpl$deqf) refers to dcmpi.o(x$fpl$dcmpinf) for __fpl_dcmp_Inf
    dfixu.o(x$fpl$dfixu) refers (Special) to usenofp.o(x$fpl$usenofp) for __I$use$fp
    dfixu.o(x$fpl$dfixu) refers to dnaninf.o(x$fpl$dnaninf) for __fpl_dnaninf
    dfixu.o(x$fpl$dfixur) refers (Special) to usenofp.o(x$fpl$usenofp) for __I$use$fp
    dfixu.o(x$fpl$dfixur) refers to dnaninf.o(x$fpl$dnaninf) for __fpl_dnaninf
    dfixull.o(x$fpl$llufromd) refers (Special) to usenofp.o(x$fpl$usenofp) for __I$use$fp
    dfixull.o(x$fpl$llufromd) refers to dnaninf.o(x$fpl$dnaninf) for __fpl_dnaninf
    dfixull.o(x$fpl$llufromdr) refers (Special) to usenofp.o(x$fpl$usenofp) for __I$use$fp
    dfixull.o(x$fpl$llufromdr) refers to dnaninf.o(x$fpl$dnaninf) for __fpl_dnaninf
    dflt_clz.o(x$fpl$dfltu) refers (Special) to usenofp.o(x$fpl$usenofp) for __I$use$fp
    dflt_clz.o(x$fpl$dflt) refers (Special) to usenofp.o(x$fpl$usenofp) for __I$use$fp
    dflt_clz.o(x$fpl$dfltn) refers (Special) to usenofp.o(x$fpl$usenofp) for __I$use$fp
    dleqf.o(x$fpl$dleqf) refers (Special) to usenofp.o(x$fpl$usenofp) for __I$use$fp
    dleqf.o(x$fpl$dleqf) refers to dnaninf.o(x$fpl$dnaninf) for __fpl_dnaninf
    dleqf.o(x$fpl$dleqf) refers to dcmpi.o(x$fpl$dcmpinf) for __fpl_dcmp_Inf
    dmul.o(x$fpl$dmul) refers (Special) to usenofp.o(x$fpl$usenofp) for __I$use$fp
    dmul.o(x$fpl$dmul) refers to dretinf.o(x$fpl$dretinf) for __fpl_dretinf
    dmul.o(x$fpl$dmul) refers to dnaninf.o(x$fpl$dnaninf) for __fpl_dnaninf
    drleqf.o(x$fpl$drleqf) refers (Special) to usenofp.o(x$fpl$usenofp) for __I$use$fp
    drleqf.o(x$fpl$drleqf) refers to dleqf.o(x$fpl$dleqf) for __fpl_dcmple_InfNaN
    f2d.o(x$fpl$f2d) refers (Special) to usenofp.o(x$fpl$usenofp) for __I$use$fp
    f2d.o(x$fpl$f2d) refers to fnaninf.o(x$fpl$fnaninf) for __fpl_fnaninf
    f2d.o(x$fpl$f2d) refers to dretinf.o(x$fpl$dretinf) for __fpl_dretinf
    printf1.o(x$fpl$printf1) refers to _printf_fp_dec.o(.text) for _printf_fp_dec_real
    printf2.o(x$fpl$printf2) refers to _printf_fp_hex.o(.text) for _printf_fp_hex_real
    printf2b.o(x$fpl$printf2) refers to _printf_fp_hex.o(.text) for _printf_fp_hex_real
    atof.o(i.__hardfp_atof) refers (Special) to usenofp.o(x$fpl$usenofp) for __I$use$fp
    atof.o(i.__hardfp_atof) refers to _rserrno.o(.text) for __read_errno
    atof.o(i.__hardfp_atof) refers to strtod.o(.text) for __strtod_int
    atof.o(i.__softfp_atof) refers (Special) to usenofp.o(x$fpl$usenofp) for __I$use$fp
    atof.o(i.__softfp_atof) refers to _rserrno.o(.text) for __read_errno
    atof.o(i.__softfp_atof) refers to strtod.o(.text) for __strtod_int
    atof.o(i.atof) refers (Special) to usenofp.o(x$fpl$usenofp) for __I$use$fp
    atof.o(i.atof) refers to _rserrno.o(.text) for __read_errno
    atof.o(i.atof) refers to strtod.o(.text) for __strtod_int
    log10f.o(i.__hardfp_log10f) refers (Special) to usenofp.o(x$fpl$usenofp) for __I$use$fp
    log10f.o(i.__hardfp_log10f) refers to funder.o(i.__mathlib_flt_infnan) for __mathlib_flt_infnan
    log10f.o(i.__hardfp_log10f) refers to _rserrno.o(.text) for __set_errno
    log10f.o(i.__hardfp_log10f) refers to funder.o(i.__mathlib_flt_invalid) for __mathlib_flt_invalid
    log10f.o(i.__hardfp_log10f) refers to funder.o(i.__mathlib_flt_divzero) for __mathlib_flt_divzero
    log10f.o(i.__hardfp_log10f) refers to log10f.o(.constdata) for .constdata
    log10f.o(i.__softfp_log10f) refers (Special) to usenofp.o(x$fpl$usenofp) for __I$use$fp
    log10f.o(i.__softfp_log10f) refers to log10f.o(i.__hardfp_log10f) for __hardfp_log10f
    log10f.o(i.log10f) refers (Special) to usenofp.o(x$fpl$usenofp) for __I$use$fp
    log10f.o(i.log10f) refers to log10f.o(i.__hardfp_log10f) for __hardfp_log10f
    log10f.o(.constdata) refers (Special) to usenofp.o(x$fpl$usenofp) for __I$use$fp
    log10f_x.o(i.____hardfp_log10f$lsc) refers (Special) to usenofp.o(x$fpl$usenofp) for __I$use$fp
    log10f_x.o(i.____hardfp_log10f$lsc) refers to funder.o(i.__mathlib_flt_infnan) for __mathlib_flt_infnan
    log10f_x.o(i.____hardfp_log10f$lsc) refers to _rserrno.o(.text) for __set_errno
    log10f_x.o(i.____hardfp_log10f$lsc) refers to log10f_x.o(.constdata) for .constdata
    log10f_x.o(i.____softfp_log10f$lsc) refers (Special) to usenofp.o(x$fpl$usenofp) for __I$use$fp
    log10f_x.o(i.____softfp_log10f$lsc) refers to log10f_x.o(i.____hardfp_log10f$lsc) for ____hardfp_log10f$lsc
    log10f_x.o(i.__log10f$lsc) refers (Special) to usenofp.o(x$fpl$usenofp) for __I$use$fp
    log10f_x.o(i.__log10f$lsc) refers to log10f_x.o(i.____hardfp_log10f$lsc) for ____hardfp_log10f$lsc
    log10f_x.o(.constdata) refers (Special) to usenofp.o(x$fpl$usenofp) for __I$use$fp
    powf.o(i.__hardfp_powf) refers (Special) to usenofp.o(x$fpl$usenofp) for __I$use$fp
    powf.o(i.__hardfp_powf) refers to _rserrno.o(.text) for __set_errno
    powf.o(i.__hardfp_powf) refers to funder.o(i.__mathlib_flt_overflow) for __mathlib_flt_overflow
    powf.o(i.__hardfp_powf) refers to fpclassifyf.o(i.__ARM_fpclassifyf) for __ARM_fpclassifyf
    powf.o(i.__hardfp_powf) refers to funder.o(i.__mathlib_flt_underflow) for __mathlib_flt_underflow
    powf.o(i.__hardfp_powf) refers to funder.o(i.__mathlib_flt_invalid) for __mathlib_flt_invalid
    powf.o(i.__hardfp_powf) refers to powf.o(.constdata) for .constdata
    powf.o(i.__hardfp_powf) refers to funder.o(i.__mathlib_flt_infnan2) for __mathlib_flt_infnan2
    powf.o(i.__hardfp_powf) refers to funder.o(i.__mathlib_flt_divzero) for __mathlib_flt_divzero
    powf.o(i.__softfp_powf) refers (Special) to usenofp.o(x$fpl$usenofp) for __I$use$fp
    powf.o(i.__softfp_powf) refers to powf.o(i.__hardfp_powf) for __hardfp_powf
    powf.o(i.powf) refers (Special) to usenofp.o(x$fpl$usenofp) for __I$use$fp
    powf.o(i.powf) refers to powf.o(i.__hardfp_powf) for __hardfp_powf
    powf.o(.constdata) refers (Special) to usenofp.o(x$fpl$usenofp) for __I$use$fp
    powf_x.o(i.____hardfp_powf$lsc) refers (Special) to usenofp.o(x$fpl$usenofp) for __I$use$fp
    powf_x.o(i.____hardfp_powf$lsc) refers to _rserrno.o(.text) for __set_errno
    powf_x.o(i.____hardfp_powf$lsc) refers to powf_x.o(.constdata) for .constdata
    powf_x.o(i.____hardfp_powf$lsc) refers to funder.o(i.__mathlib_flt_infnan2) for __mathlib_flt_infnan2
    powf_x.o(i.____softfp_powf$lsc) refers (Special) to usenofp.o(x$fpl$usenofp) for __I$use$fp
    powf_x.o(i.____softfp_powf$lsc) refers to powf_x.o(i.____hardfp_powf$lsc) for ____hardfp_powf$lsc
    powf_x.o(i.__powf$lsc) refers (Special) to usenofp.o(x$fpl$usenofp) for __I$use$fp
    powf_x.o(i.__powf$lsc) refers to powf_x.o(i.____hardfp_powf$lsc) for ____hardfp_powf$lsc
    powf_x.o(.constdata) refers (Special) to usenofp.o(x$fpl$usenofp) for __I$use$fp
    sin.o(i.__hardfp_sin) refers (Special) to usenofp.o(x$fpl$usenofp) for __I$use$fp
    sin.o(i.__hardfp_sin) refers to _rserrno.o(.text) for __set_errno
    sin.o(i.__hardfp_sin) refers to dunder.o(i.__mathlib_dbl_invalid) for __mathlib_dbl_invalid
    sin.o(i.__hardfp_sin) refers to dunder.o(i.__mathlib_dbl_infnan) for __mathlib_dbl_infnan
    sin.o(i.__hardfp_sin) refers to rred.o(i.__ieee754_rem_pio2) for __ieee754_rem_pio2
    sin.o(i.__hardfp_sin) refers to cos_i.o(i.__kernel_cos) for __kernel_cos
    sin.o(i.__hardfp_sin) refers to basic.o(x$fpl$basic) for __aeabi_dneg
    sin.o(i.__hardfp_sin) refers to sin_i.o(i.__kernel_sin) for __kernel_sin
    sin.o(i.__softfp_sin) refers (Special) to usenofp.o(x$fpl$usenofp) for __I$use$fp
    sin.o(i.__softfp_sin) refers to sin.o(i.__hardfp_sin) for __hardfp_sin
    sin.o(i.sin) refers (Special) to usenofp.o(x$fpl$usenofp) for __I$use$fp
    sin.o(i.sin) refers to sin.o(i.__hardfp_sin) for __hardfp_sin
    sin_x.o(i.____hardfp_sin$lsc) refers (Special) to usenofp.o(x$fpl$usenofp) for __I$use$fp
    sin_x.o(i.____hardfp_sin$lsc) refers to _rserrno.o(.text) for __set_errno
    sin_x.o(i.____hardfp_sin$lsc) refers to dunder.o(i.__mathlib_dbl_infnan) for __mathlib_dbl_infnan
    sin_x.o(i.____hardfp_sin$lsc) refers to rred.o(i.__ieee754_rem_pio2) for __ieee754_rem_pio2
    sin_x.o(i.____hardfp_sin$lsc) refers to cos_i.o(i.__kernel_cos) for __kernel_cos
    sin_x.o(i.____hardfp_sin$lsc) refers to basic.o(x$fpl$basic) for __aeabi_dneg
    sin_x.o(i.____hardfp_sin$lsc) refers to sin_i.o(i.__kernel_sin) for __kernel_sin
    sin_x.o(i.____softfp_sin$lsc) refers (Special) to usenofp.o(x$fpl$usenofp) for __I$use$fp
    sin_x.o(i.____softfp_sin$lsc) refers to sin_x.o(i.____hardfp_sin$lsc) for ____hardfp_sin$lsc
    sin_x.o(i.__sin$lsc) refers (Special) to usenofp.o(x$fpl$usenofp) for __I$use$fp
    sin_x.o(i.__sin$lsc) refers to sin_x.o(i.____hardfp_sin$lsc) for ____hardfp_sin$lsc
    __rtentry.o(.ARM.Collect$$rtentry$$00000000) refers (Special) to __rtentry2.o(.ARM.Collect$$rtentry$$0000000A) for __rt_entry_li
    __rtentry.o(.ARM.Collect$$rtentry$$00000000) refers (Special) to __rtentry2.o(.ARM.Collect$$rtentry$$0000000D) for __rt_entry_main
    __rtentry.o(.ARM.Collect$$rtentry$$00000000) refers (Special) to __rtentry2.o(.ARM.Collect$$rtentry$$0000000C) for __rt_entry_postli_1
    __rtentry.o(.ARM.Collect$$rtentry$$00000000) refers (Special) to __rtentry2.o(.ARM.Collect$$rtentry$$00000009) for __rt_entry_postsh_1
    __rtentry.o(.ARM.Collect$$rtentry$$00000000) refers (Special) to __rtentry2.o(.ARM.Collect$$rtentry$$00000002) for __rt_entry_presh_1
    __rtentry.o(.ARM.Collect$$rtentry$$00000000) refers (Special) to __rtentry4.o(.ARM.Collect$$rtentry$$00000004) for __rt_entry_sh
    aeabi_ldiv0_sigfpe.o(.text) refers to rt_div0.o(.text) for __rt_div0
    _rserrno.o(.text) refers to rt_errno_addr_intlibspace.o(.text) for __aeabi_errno_addr
    _printf_fp_dec.o(.text) refers (Special) to usenofp.o(x$fpl$usenofp) for __I$use$fp
    _printf_fp_dec.o(.text) refers (Special) to lc_numeric_c.o(locale$$code) for _get_lc_numeric
    _printf_fp_dec.o(.text) refers to bigflt0.o(.text) for _btod_etento
    _printf_fp_dec.o(.text) refers to btod.o(CL$$btod_d2e) for _btod_d2e
    _printf_fp_dec.o(.text) refers to btod.o(CL$$btod_ediv) for _btod_ediv
    _printf_fp_dec.o(.text) refers to btod.o(CL$$btod_emul) for _btod_emul
    _printf_fp_dec.o(.text) refers to lludiv10.o(.text) for _ll_udiv10
    _printf_fp_dec.o(.text) refers to fpclassify.o(i.__ARM_fpclassify) for __ARM_fpclassify
    _printf_fp_dec.o(.text) refers to _printf_fp_infnan.o(.text) for _printf_fp_infnan
    _printf_fp_dec.o(.text) refers (Weak) to _printf_pad.o(.text) for _printf_pre_padding
    _printf_fp_dec.o(.text) refers (Weak) to _printf_pad.o(.text) for _printf_pre_padding
    _printf_fp_dec.o(.text) refers to rt_locale_intlibspace.o(.text) for __rt_locale
    _printf_fp_dec.o(.text) refers (Weak) to _printf_pad.o(.text) for _printf_post_padding
    _printf_fp_hex.o(.text) refers (Special) to usenofp.o(x$fpl$usenofp) for __I$use$fp
    _printf_fp_hex.o(.text) refers to fpclassify.o(i.__ARM_fpclassify) for __ARM_fpclassify
    _printf_fp_hex.o(.text) refers to _printf_fp_infnan.o(.text) for _printf_fp_infnan
    _printf_fp_hex.o(.text) refers (Weak) to _printf_pad.o(.text) for _printf_pre_padding
    _printf_fp_hex.o(.text) refers (Weak) to _printf_pad.o(.text) for _printf_pre_padding
    _printf_fp_hex.o(.text) refers (Weak) to _printf_pad.o(.text) for _printf_post_padding
    _printf_fp_hex.o(.text) refers to _printf_fp_hex.o(.constdata) for .constdata
    _printf_fp_hex.o(.constdata) refers (Special) to usenofp.o(x$fpl$usenofp) for __I$use$fp
    _printf_char_common.o(.text) refers to __printf_flags_ss_wp.o(.text) for __printf
    _printf_char.o(.text) refers (Weak) to _printf_str.o(.text) for _printf_str
    _printf_char_file.o(.text) refers to _printf_char_common.o(.text) for _printf_char_common
    _printf_char_file.o(.text) refers to ferror.o(.text) for ferror
    _printf_char_file.o(.text) refers to usart.o(i.fputc) for fputc
    strtod.o(.text) refers (Special) to lc_numeric_c.o(locale$$code) for _get_lc_numeric
    strtod.o(.text) refers to scanf1.o(x$fpl$scanf1) for _scanf_real
    strtod.o(.text) refers to _sgetc.o(.text) for _sgetc
    strtod.o(.text) refers to isspace.o(.text) for isspace
    dcmpi.o(x$fpl$dcmpinf) refers (Special) to usenofp.o(x$fpl$usenofp) for __I$use$fp
    dnaninf.o(x$fpl$dnaninf) refers (Special) to usenofp.o(x$fpl$usenofp) for __I$use$fp
    dretinf.o(x$fpl$dretinf) refers (Special) to usenofp.o(x$fpl$usenofp) for __I$use$fp
    fnaninf.o(x$fpl$fnaninf) refers (Special) to usenofp.o(x$fpl$usenofp) for __I$use$fp
    fretinf.o(x$fpl$fretinf) refers (Special) to usenofp.o(x$fpl$usenofp) for __I$use$fp
    istatus.o(x$fpl$ieeestatus) refers (Special) to usenofp.o(x$fpl$usenofp) for __I$use$fp
    cos_i.o(i.__kernel_cos) refers (Special) to usenofp.o(x$fpl$usenofp) for __I$use$fp
    cos_i.o(i.__kernel_cos) refers to dfix.o(x$fpl$dfix) for __aeabi_d2iz
    cos_i.o(i.__kernel_cos) refers to dmul.o(x$fpl$dmul) for __aeabi_dmul
    cos_i.o(i.__kernel_cos) refers to poly.o(i.__kernel_poly) for __kernel_poly
    cos_i.o(i.__kernel_cos) refers to daddsub_clz.o(x$fpl$dsub) for __aeabi_dsub
    cos_i.o(i.__kernel_cos) refers to daddsub_clz.o(x$fpl$drsb) for __aeabi_drsub
    cos_i.o(i.__kernel_cos) refers to cos_i.o(.constdata) for .constdata
    cos_i.o(.constdata) refers (Special) to usenofp.o(x$fpl$usenofp) for __I$use$fp
    dunder.o(i.__mathlib_dbl_divzero) refers to ddiv.o(x$fpl$ddiv) for __aeabi_ddiv
    dunder.o(i.__mathlib_dbl_infnan) refers to daddsub_clz.o(x$fpl$dadd) for __aeabi_dadd
    dunder.o(i.__mathlib_dbl_infnan2) refers to daddsub_clz.o(x$fpl$dadd) for __aeabi_dadd
    dunder.o(i.__mathlib_dbl_invalid) refers to ddiv.o(x$fpl$ddiv) for __aeabi_ddiv
    dunder.o(i.__mathlib_dbl_overflow) refers to dmul.o(x$fpl$dmul) for __aeabi_dmul
    dunder.o(i.__mathlib_dbl_posinfnan) refers to dmul.o(x$fpl$dmul) for __aeabi_dmul
    dunder.o(i.__mathlib_dbl_underflow) refers to dmul.o(x$fpl$dmul) for __aeabi_dmul
    fpclassifyf.o(i.__ARM_fpclassifyf) refers (Special) to usenofp.o(x$fpl$usenofp) for __I$use$fp
    rred.o(i.__ieee754_rem_pio2) refers (Special) to usenofp.o(x$fpl$usenofp) for __I$use$fp
    rred.o(i.__ieee754_rem_pio2) refers to daddsub_clz.o(x$fpl$dsub) for __aeabi_dsub
    rred.o(i.__ieee754_rem_pio2) refers to daddsub_clz.o(x$fpl$dadd) for __aeabi_dadd
    rred.o(i.__ieee754_rem_pio2) refers to fabs.o(i.fabs) for fabs
    rred.o(i.__ieee754_rem_pio2) refers to dmul.o(x$fpl$dmul) for __aeabi_dmul
    rred.o(i.__ieee754_rem_pio2) refers to dfix.o(x$fpl$dfix) for __aeabi_d2iz
    rred.o(i.__ieee754_rem_pio2) refers to dflt_clz.o(x$fpl$dflt) for __aeabi_i2d
    rred.o(i.__ieee754_rem_pio2) refers to daddsub_clz.o(x$fpl$drsb) for __aeabi_drsub
    rred.o(i.__ieee754_rem_pio2) refers to basic.o(x$fpl$basic) for __aeabi_dneg
    rred.o(i.__ieee754_rem_pio2) refers to dflt_clz.o(x$fpl$dfltu) for __aeabi_ui2d
    rred.o(i.__ieee754_rem_pio2) refers to rred.o(.constdata) for .constdata
    rred.o(i.__use_accurate_range_reduction) refers (Special) to usenofp.o(x$fpl$usenofp) for __I$use$fp
    rred.o(.constdata) refers (Special) to usenofp.o(x$fpl$usenofp) for __I$use$fp
    sin_i.o(i.__kernel_sin) refers (Special) to usenofp.o(x$fpl$usenofp) for __I$use$fp
    sin_i.o(i.__kernel_sin) refers to fpclassify.o(i.__ARM_fpclassify) for __ARM_fpclassify
    sin_i.o(i.__kernel_sin) refers to dunder.o(i.__mathlib_dbl_underflow) for __mathlib_dbl_underflow
    sin_i.o(i.__kernel_sin) refers to dmul.o(x$fpl$dmul) for __aeabi_dmul
    sin_i.o(i.__kernel_sin) refers to poly.o(i.__kernel_poly) for __kernel_poly
    sin_i.o(i.__kernel_sin) refers to daddsub_clz.o(x$fpl$dsub) for __aeabi_dsub
    sin_i.o(i.__kernel_sin) refers to daddsub_clz.o(x$fpl$drsb) for __aeabi_drsub
    sin_i.o(i.__kernel_sin) refers to daddsub_clz.o(x$fpl$dadd) for __aeabi_dadd
    sin_i.o(i.__kernel_sin) refers to sin_i.o(.constdata) for .constdata
    sin_i.o(.constdata) refers (Special) to usenofp.o(x$fpl$usenofp) for __I$use$fp
    sin_i_x.o(i.____kernel_sin$lsc) refers (Special) to usenofp.o(x$fpl$usenofp) for __I$use$fp
    sin_i_x.o(i.____kernel_sin$lsc) refers to dmul.o(x$fpl$dmul) for __aeabi_dmul
    sin_i_x.o(i.____kernel_sin$lsc) refers to poly.o(i.__kernel_poly) for __kernel_poly
    sin_i_x.o(i.____kernel_sin$lsc) refers to daddsub_clz.o(x$fpl$dsub) for __aeabi_dsub
    sin_i_x.o(i.____kernel_sin$lsc) refers to daddsub_clz.o(x$fpl$drsb) for __aeabi_drsub
    sin_i_x.o(i.____kernel_sin$lsc) refers to daddsub_clz.o(x$fpl$dadd) for __aeabi_dadd
    sin_i_x.o(i.____kernel_sin$lsc) refers to sin_i_x.o(.constdata) for .constdata
    sin_i_x.o(.constdata) refers (Special) to usenofp.o(x$fpl$usenofp) for __I$use$fp
    __rtentry2.o(.ARM.Collect$$rtentry$$00000008) refers to boardinit2.o(.text) for _platform_post_stackheap_init
    __rtentry2.o(.ARM.Collect$$rtentry$$0000000A) refers to libinit.o(.ARM.Collect$$libinit$$00000000) for __rt_lib_init
    __rtentry2.o(.ARM.Collect$$rtentry$$0000000B) refers to boardinit3.o(.text) for _platform_post_lib_init
    __rtentry2.o(.ARM.Collect$$rtentry$$0000000D) refers to main.o(i.main) for main
    __rtentry2.o(.ARM.Collect$$rtentry$$0000000D) refers to exit.o(.text) for exit
    __rtentry2.o(.ARM.exidx) refers to __rtentry2.o(.ARM.Collect$$rtentry$$00000001) for .ARM.Collect$$rtentry$$00000001
    __rtentry2.o(.ARM.exidx) refers to __rtentry2.o(.ARM.Collect$$rtentry$$00000008) for .ARM.Collect$$rtentry$$00000008
    __rtentry2.o(.ARM.exidx) refers to __rtentry2.o(.ARM.Collect$$rtentry$$0000000A) for .ARM.Collect$$rtentry$$0000000A
    __rtentry2.o(.ARM.exidx) refers to __rtentry2.o(.ARM.Collect$$rtentry$$0000000B) for .ARM.Collect$$rtentry$$0000000B
    __rtentry2.o(.ARM.exidx) refers to __rtentry2.o(.ARM.Collect$$rtentry$$0000000D) for .ARM.Collect$$rtentry$$0000000D
    __rtentry4.o(.ARM.Collect$$rtentry$$00000004) refers to sys_stackheap_outer.o(.text) for __user_setup_stackheap
    __rtentry4.o(.ARM.exidx) refers to __rtentry4.o(.ARM.Collect$$rtentry$$00000004) for .ARM.Collect$$rtentry$$00000004
    rt_div0.o(.text) refers to defsig_fpe_outer.o(.text) for __rt_SIGFPE
    rt_locale.o(.text) refers to rt_locale.o(.bss) for __rt_locale_data
    rt_locale_intlibspace.o(.text) refers to libspace.o(.bss) for __libspace_start
    rt_errno_addr.o(.text) refers to rt_errno_addr.o(.bss) for __aeabi_errno_addr_data
    rt_errno_addr_intlibspace.o(.text) refers to libspace.o(.bss) for __libspace_start
    isspace.o(.text) refers to rt_ctype_table.o(.text) for __rt_ctype_table
    _printf_fp_infnan.o(.text) refers (Weak) to _printf_pad.o(.text) for _printf_pre_padding
    _printf_fp_infnan.o(.text) refers (Weak) to _printf_pad.o(.text) for _printf_post_padding
    bigflt0.o(.text) refers (Special) to usenofp.o(x$fpl$usenofp) for __I$use$fp
    bigflt0.o(.text) refers to btod.o(CL$$btod_emul) for _btod_emul
    bigflt0.o(.text) refers to btod.o(CL$$btod_ediv) for _btod_ediv
    bigflt0.o(.text) refers to bigflt0.o(.constdata) for .constdata
    bigflt0.o(.constdata) refers (Special) to usenofp.o(x$fpl$usenofp) for __I$use$fp
    btod.o(CL$$btod_d2e) refers (Special) to usenofp.o(x$fpl$usenofp) for __I$use$fp
    btod.o(CL$$btod_d2e) refers to btod.o(CL$$btod_d2e_norm_op1) for _d2e_norm_op1
    btod.o(CL$$btod_d2e_norm_op1) refers (Special) to usenofp.o(x$fpl$usenofp) for __I$use$fp
    btod.o(CL$$btod_d2e_norm_op1) refers to btod.o(CL$$btod_d2e_denorm_low) for _d2e_denorm_low
    btod.o(CL$$btod_d2e_denorm_low) refers (Special) to usenofp.o(x$fpl$usenofp) for __I$use$fp
    btod.o(CL$$btod_emul) refers (Special) to usenofp.o(x$fpl$usenofp) for __I$use$fp
    btod.o(CL$$btod_emul) refers to btod.o(CL$$btod_mult_common) for __btod_mult_common
    btod.o(CL$$btod_emul) refers to btod.o(CL$$btod_e2e) for _e2e
    btod.o(CL$$btod_ediv) refers (Special) to usenofp.o(x$fpl$usenofp) for __I$use$fp
    btod.o(CL$$btod_ediv) refers to btod.o(CL$$btod_div_common) for __btod_div_common
    btod.o(CL$$btod_ediv) refers to btod.o(CL$$btod_e2e) for _e2e
    btod.o(CL$$btod_emuld) refers (Special) to usenofp.o(x$fpl$usenofp) for __I$use$fp
    btod.o(CL$$btod_emuld) refers to btod.o(CL$$btod_mult_common) for __btod_mult_common
    btod.o(CL$$btod_emuld) refers to btod.o(CL$$btod_e2d) for _e2d
    btod.o(CL$$btod_edivd) refers (Special) to usenofp.o(x$fpl$usenofp) for __I$use$fp
    btod.o(CL$$btod_edivd) refers to btod.o(CL$$btod_div_common) for __btod_div_common
    btod.o(CL$$btod_edivd) refers to btod.o(CL$$btod_e2d) for _e2d
    btod.o(CL$$btod_e2e) refers (Special) to usenofp.o(x$fpl$usenofp) for __I$use$fp
    btod.o(CL$$btod_e2d) refers (Special) to usenofp.o(x$fpl$usenofp) for __I$use$fp
    btod.o(CL$$btod_e2d) refers to btod.o(CL$$btod_e2e) for _e2e
    btod.o(CL$$btod_mult_common) refers (Special) to usenofp.o(x$fpl$usenofp) for __I$use$fp
    btod.o(CL$$btod_div_common) refers (Special) to usenofp.o(x$fpl$usenofp) for __I$use$fp
    lc_numeric_c.o(locale$$data) refers (Special) to libinit2.o(.ARM.Collect$$libinit$$00000016) for __rt_lib_init_lc_numeric_2
    lc_numeric_c.o(locale$$code) refers (Special) to libinit2.o(.ARM.Collect$$libinit$$00000016) for __rt_lib_init_lc_numeric_2
    lc_numeric_c.o(locale$$code) refers to strcmpv7m.o(.text) for strcmp
    lc_numeric_c.o(locale$$code) refers to lc_numeric_c.o(locale$$data) for __lcnum_c_name
    dfix.o(x$fpl$dfix) refers (Special) to usenofp.o(x$fpl$usenofp) for __I$use$fp
    dfix.o(x$fpl$dfix) refers to dnaninf.o(x$fpl$dnaninf) for __fpl_dnaninf
    dfix.o(x$fpl$dfixr) refers (Special) to usenofp.o(x$fpl$usenofp) for __I$use$fp
    dfix.o(x$fpl$dfixr) refers to dnaninf.o(x$fpl$dnaninf) for __fpl_dnaninf
    scanf1.o(x$fpl$scanf1) refers to scanf_fp.o(.text) for _scanf_really_real
    fabs.o(i.__hardfp_fabs) refers (Special) to usenofp.o(x$fpl$usenofp) for __I$use$fp
    fabs.o(i.__softfp_fabs) refers (Special) to usenofp.o(x$fpl$usenofp) for __I$use$fp
    fabs.o(i.fabs) refers (Special) to usenofp.o(x$fpl$usenofp) for __I$use$fp
    fpclassify.o(i.__ARM_fpclassify) refers (Special) to usenofp.o(x$fpl$usenofp) for __I$use$fp
    poly.o(i.__kernel_poly) refers (Special) to usenofp.o(x$fpl$usenofp) for __I$use$fp
    poly.o(i.__kernel_poly) refers to dmul.o(x$fpl$dmul) for __aeabi_dmul
    poly.o(i.__kernel_poly) refers to daddsub_clz.o(x$fpl$dadd) for __aeabi_dadd
    libspace.o(.text) refers to libspace.o(.bss) for __libspace_start
    sys_stackheap_outer.o(.text) refers to libspace.o(.text) for __user_perproc_libspace
    sys_stackheap_outer.o(.text) refers to startup_stm32f40_41xxx.o(.text) for __user_initial_stackheap
    rt_ctype_table.o(.text) refers to rt_locale_intlibspace.o(.text) for __rt_locale
    rt_ctype_table.o(.text) refers to lc_ctype_c.o(locale$$code) for _get_lc_ctype
    scanf_fp.o(.text) refers (Special) to usenofp.o(x$fpl$usenofp) for __I$use$fp
    scanf_fp.o(.text) refers (Special) to lc_numeric_c.o(locale$$code) for _get_lc_numeric
    scanf_fp.o(.text) refers to rt_errno_addr_intlibspace.o(.text) for __aeabi_errno_addr
    scanf_fp.o(.text) refers to istatus.o(x$fpl$ieeestatus) for __ieee_status
    scanf_fp.o(.text) refers to bigflt0.o(.text) for _btod_etento
    scanf_fp.o(.text) refers to btod.o(CL$$btod_emuld) for _btod_emuld
    scanf_fp.o(.text) refers to btod.o(CL$$btod_edivd) for _btod_edivd
    scanf_fp.o(.text) refers to rt_locale_intlibspace.o(.text) for __rt_locale
    scanf_fp.o(.text) refers to scanf2.o(x$fpl$scanf2) for _scanf_infnan
    scanf_fp.o(.text) refers to __printf_wp.o(i._is_digit) for _is_digit
    scanf_fp.o(.text) refers to fpconst.o(c$$dmax) for __dbl_max
    scanf_fp.o(.text) refers to fpconst.o(c$$dinf) for __huge_val
    scanf_fp.o(.text) refers to narrow.o(i.__mathlib_narrow) for __mathlib_narrow
    exit.o(.text) refers to rtexit.o(.ARM.Collect$$rtexit$$00000000) for __rt_exit
    defsig_fpe_outer.o(.text) refers to defsig_fpe_inner.o(.text) for __rt_SIGFPE_inner
    defsig_fpe_outer.o(.text) refers to defsig_exit.o(.text) for __sig_exit
    defsig_fpe_formal.o(.text) refers to rt_raise.o(.text) for __rt_raise
    libinit.o(.ARM.Collect$$libinit$$00000000) refers (Special) to libinit2.o(.ARM.Collect$$libinit$$0000002E) for __rt_lib_init_alloca_1
    libinit.o(.ARM.Collect$$libinit$$00000000) refers (Special) to libinit2.o(.ARM.Collect$$libinit$$0000002C) for __rt_lib_init_argv_1
    libinit.o(.ARM.Collect$$libinit$$00000000) refers (Special) to libinit2.o(.ARM.Collect$$libinit$$0000001B) for __rt_lib_init_atexit_1
    libinit.o(.ARM.Collect$$libinit$$00000000) refers (Special) to libinit2.o(.ARM.Collect$$libinit$$00000021) for __rt_lib_init_clock_1
    libinit.o(.ARM.Collect$$libinit$$00000000) refers (Special) to libinit2.o(.ARM.Collect$$libinit$$00000032) for __rt_lib_init_cpp_1
    libinit.o(.ARM.Collect$$libinit$$00000000) refers (Special) to libinit2.o(.ARM.Collect$$libinit$$00000030) for __rt_lib_init_exceptions_1
    libinit.o(.ARM.Collect$$libinit$$00000000) refers (Special) to libinit2.o(.ARM.Collect$$libinit$$00000001) for __rt_lib_init_fp_1
    libinit.o(.ARM.Collect$$libinit$$00000000) refers (Special) to libinit2.o(.ARM.Collect$$libinit$$0000001F) for __rt_lib_init_fp_trap_1
    libinit.o(.ARM.Collect$$libinit$$00000000) refers (Special) to libinit2.o(.ARM.Collect$$libinit$$00000023) for __rt_lib_init_getenv_1
    libinit.o(.ARM.Collect$$libinit$$00000000) refers (Special) to libinit2.o(.ARM.Collect$$libinit$$0000000A) for __rt_lib_init_heap_1
    libinit.o(.ARM.Collect$$libinit$$00000000) refers (Special) to libinit2.o(.ARM.Collect$$libinit$$00000011) for __rt_lib_init_lc_collate_1
    libinit.o(.ARM.Collect$$libinit$$00000000) refers (Special) to libinit2.o(.ARM.Collect$$libinit$$00000013) for __rt_lib_init_lc_ctype_1
    libinit.o(.ARM.Collect$$libinit$$00000000) refers (Special) to libinit2.o(.ARM.Collect$$libinit$$00000015) for __rt_lib_init_lc_monetary_1
    libinit.o(.ARM.Collect$$libinit$$00000000) refers (Special) to libinit2.o(.ARM.Collect$$libinit$$00000017) for __rt_lib_init_lc_numeric_1
    libinit.o(.ARM.Collect$$libinit$$00000000) refers (Special) to libinit2.o(.ARM.Collect$$libinit$$00000019) for __rt_lib_init_lc_time_1
    libinit.o(.ARM.Collect$$libinit$$00000000) refers (Special) to libinit2.o(.ARM.Collect$$libinit$$00000004) for __rt_lib_init_preinit_1
    libinit.o(.ARM.Collect$$libinit$$00000000) refers (Special) to libinit2.o(.ARM.Collect$$libinit$$0000000E) for __rt_lib_init_rand_1
    libinit.o(.ARM.Collect$$libinit$$00000000) refers (Special) to libinit2.o(.ARM.Collect$$libinit$$00000033) for __rt_lib_init_return
    libinit.o(.ARM.Collect$$libinit$$00000000) refers (Special) to libinit2.o(.ARM.Collect$$libinit$$0000001D) for __rt_lib_init_signal_1
    libinit.o(.ARM.Collect$$libinit$$00000000) refers (Special) to libinit2.o(.ARM.Collect$$libinit$$00000025) for __rt_lib_init_stdio_1
    libinit.o(.ARM.Collect$$libinit$$00000000) refers (Special) to libinit2.o(.ARM.Collect$$libinit$$0000000C) for __rt_lib_init_user_alloc_1
    libinit2.o(.ARM.Collect$$libinit$$00000001) refers to fpinit.o(x$fpl$fpinit) for _fp_init
    libinit2.o(.ARM.Collect$$libinit$$0000000F) refers (Weak) to rt_locale_intlibspace.o(.text) for __rt_locale
    libinit2.o(.ARM.Collect$$libinit$$00000010) refers to libinit2.o(.ARM.Collect$$libinit$$0000000F) for .ARM.Collect$$libinit$$0000000F
    libinit2.o(.ARM.Collect$$libinit$$00000012) refers to libinit2.o(.ARM.Collect$$libinit$$0000000F) for .ARM.Collect$$libinit$$0000000F
    libinit2.o(.ARM.Collect$$libinit$$00000012) refers (Weak) to lc_ctype_c.o(locale$$code) for _get_lc_ctype
    libinit2.o(.ARM.Collect$$libinit$$00000014) refers to libinit2.o(.ARM.Collect$$libinit$$0000000F) for .ARM.Collect$$libinit$$0000000F
    libinit2.o(.ARM.Collect$$libinit$$00000016) refers to libinit2.o(.ARM.Collect$$libinit$$0000000F) for .ARM.Collect$$libinit$$0000000F
    libinit2.o(.ARM.Collect$$libinit$$00000016) refers (Weak) to lc_numeric_c.o(locale$$code) for _get_lc_numeric
    libinit2.o(.ARM.Collect$$libinit$$00000018) refers to libinit2.o(.ARM.Collect$$libinit$$0000000F) for .ARM.Collect$$libinit$$0000000F
    libinit2.o(.ARM.Collect$$libinit$$00000026) refers to argv_veneer.o(.emb_text) for __ARM_argv_veneer
    libinit2.o(.ARM.Collect$$libinit$$00000027) refers to argv_veneer.o(.emb_text) for __ARM_argv_veneer
    rtexit.o(.ARM.Collect$$rtexit$$00000000) refers (Special) to rtexit2.o(.ARM.Collect$$rtexit$$00000004) for __rt_exit_exit
    rtexit.o(.ARM.Collect$$rtexit$$00000000) refers (Special) to rtexit2.o(.ARM.Collect$$rtexit$$00000003) for __rt_exit_ls
    rtexit.o(.ARM.Collect$$rtexit$$00000000) refers (Special) to rtexit2.o(.ARM.Collect$$rtexit$$00000002) for __rt_exit_prels_1
    rtexit.o(.ARM.exidx) refers (Special) to rtexit2.o(.ARM.Collect$$rtexit$$00000004) for __rt_exit_exit
    rtexit.o(.ARM.exidx) refers (Special) to rtexit2.o(.ARM.Collect$$rtexit$$00000003) for __rt_exit_ls
    rtexit.o(.ARM.exidx) refers (Special) to rtexit2.o(.ARM.Collect$$rtexit$$00000002) for __rt_exit_prels_1
    rtexit.o(.ARM.exidx) refers to rtexit.o(.ARM.Collect$$rtexit$$00000000) for .ARM.Collect$$rtexit$$00000000
    rt_raise.o(.text) refers to __raise.o(.text) for __raise
    rt_raise.o(.text) refers to usart.o(i._sys_exit) for _sys_exit
    lc_ctype_c.o(locale$$data) refers (Special) to libinit2.o(.ARM.Collect$$libinit$$00000012) for __rt_lib_init_lc_ctype_2
    lc_ctype_c.o(locale$$code) refers (Special) to libinit2.o(.ARM.Collect$$libinit$$00000012) for __rt_lib_init_lc_ctype_2
    lc_ctype_c.o(locale$$code) refers to strcmpv7m.o(.text) for strcmp
    lc_ctype_c.o(locale$$code) refers to lc_ctype_c.o(locale$$data) for __lcctype_c_name
    defsig_exit.o(.text) refers to usart.o(i._sys_exit) for _sys_exit
    defsig_fpe_inner.o(.text) refers to defsig_general.o(.text) for __default_signal_display
    argv_veneer.o(.emb_text) refers to no_argv.o(.text) for __ARM_get_argv
    fpconst.o(c$$dinf) refers (Special) to usenofp.o(x$fpl$usenofp) for __I$use$fp
    fpconst.o(c$$dnan) refers (Special) to usenofp.o(x$fpl$usenofp) for __I$use$fp
    fpconst.o(c$$finf) refers (Special) to usenofp.o(x$fpl$usenofp) for __I$use$fp
    fpconst.o(c$$dmax) refers (Special) to usenofp.o(x$fpl$usenofp) for __I$use$fp
    scanf2.o(x$fpl$scanf2) refers to scanf_hexfp.o(.text) for _scanf_really_hex_real
    scanf2.o(x$fpl$scanf2) refers to scanf_infnan.o(.text) for _scanf_really_infnan
    scanf2b.o(x$fpl$scanf2) refers to scanf_hexfp.o(.text) for _scanf_really_hex_real
    scanf2b.o(x$fpl$scanf2) refers to scanf_infnan.o(.text) for _scanf_really_infnan
    narrow.o(i.__hardfp___mathlib_tofloat) refers (Special) to usenofp.o(x$fpl$usenofp) for __I$use$fp
    narrow.o(i.__hardfp___mathlib_tofloat) refers to frexp.o(i.frexp) for frexp
    narrow.o(i.__hardfp___mathlib_tofloat) refers to deqf.o(x$fpl$deqf) for __aeabi_cdcmpeq
    narrow.o(i.__hardfp___mathlib_tofloat) refers to d2f.o(x$fpl$d2f) for __aeabi_d2f
    narrow.o(i.__hardfp___mathlib_tofloat) refers to _rserrno.o(.text) for __set_errno
    narrow.o(i.__hardfp___mathlib_tofloat) refers to drleqf.o(x$fpl$drleqf) for __aeabi_cdrcmple
    narrow.o(i.__mathlib_narrow) refers (Special) to usenofp.o(x$fpl$usenofp) for __I$use$fp
    narrow.o(i.__mathlib_narrow) refers to narrow.o(i.__hardfp___mathlib_tofloat) for __hardfp___mathlib_tofloat
    narrow.o(i.__mathlib_tofloat) refers (Special) to usenofp.o(x$fpl$usenofp) for __I$use$fp
    narrow.o(i.__mathlib_tofloat) refers to narrow.o(i.__hardfp___mathlib_tofloat) for __hardfp___mathlib_tofloat
    narrow.o(i.__softfp___mathlib_tofloat) refers (Special) to usenofp.o(x$fpl$usenofp) for __I$use$fp
    narrow.o(i.__softfp___mathlib_tofloat) refers to narrow.o(i.__hardfp___mathlib_tofloat) for __hardfp___mathlib_tofloat
    rtexit2.o(.ARM.Collect$$rtexit$$00000003) refers to libshutdown.o(.ARM.Collect$$libshutdown$$00000000) for __rt_lib_shutdown
    rtexit2.o(.ARM.Collect$$rtexit$$00000004) refers to usart.o(i._sys_exit) for _sys_exit
    rtexit2.o(.ARM.exidx) refers to rtexit2.o(.ARM.Collect$$rtexit$$00000001) for .ARM.Collect$$rtexit$$00000001
    rtexit2.o(.ARM.exidx) refers to rtexit2.o(.ARM.Collect$$rtexit$$00000003) for .ARM.Collect$$rtexit$$00000003
    rtexit2.o(.ARM.exidx) refers to rtexit2.o(.ARM.Collect$$rtexit$$00000004) for .ARM.Collect$$rtexit$$00000004
    scanf_hexfp.o(.text) refers to _chval.o(.text) for _chval
    scanf_hexfp.o(.text) refers to llshl.o(.text) for __aeabi_llsl
    scanf_hexfp.o(.text) refers to ldexp.o(i.__support_ldexp) for __support_ldexp
    scanf_hexfp.o(.text) refers to narrow.o(i.__mathlib_narrow) for __mathlib_narrow
    __raise.o(.text) refers to defsig.o(CL$$defsig) for __default_signal_handler
    defsig_general.o(.text) refers to sys_wrch.o(.text) for _ttywrch
    _get_argv_nomalloc.o(.text) refers (Special) to hrguard.o(.text) for __heap_region$guard
    _get_argv_nomalloc.o(.text) refers to defsig_rtmem_outer.o(.text) for __rt_SIGRTMEM
    _get_argv_nomalloc.o(.text) refers to sys_command.o(.text) for _sys_command_string
    frexp.o(i.__hardfp_frexp) refers (Special) to usenofp.o(x$fpl$usenofp) for __I$use$fp
    frexp.o(i.__hardfp_frexp) refers to dmul.o(x$fpl$dmul) for __aeabi_dmul
    frexp.o(i.__softfp_frexp) refers (Special) to usenofp.o(x$fpl$usenofp) for __I$use$fp
    frexp.o(i.__softfp_frexp) refers to dmul.o(x$fpl$dmul) for __aeabi_dmul
    frexp.o(i.frexp) refers (Special) to usenofp.o(x$fpl$usenofp) for __I$use$fp
    frexp.o(i.frexp) refers to dmul.o(x$fpl$dmul) for __aeabi_dmul
    sys_wrch.o(.text) refers (Special) to use_no_semi.o(.text) for __I$use$semihosting
    sys_wrch.o(.text) refers (Special) to indicate_semi.o(.text) for __semihosting_library_function
    sys_command.o(.text) refers (Special) to use_no_semi.o(.text) for __I$use$semihosting
    sys_command.o(.text) refers (Special) to indicate_semi.o(.text) for __semihosting_library_function
    defsig_rtmem_outer.o(.text) refers to defsig_rtmem_inner.o(.text) for __rt_SIGRTMEM_inner
    defsig_rtmem_outer.o(.text) refers to defsig_exit.o(.text) for __sig_exit
    defsig_rtmem_formal.o(.text) refers to rt_raise.o(.text) for __rt_raise
    defsig.o(CL$$defsig) refers to defsig_fpe_inner.o(.text) for __rt_SIGFPE_inner
    defsig.o(CL$$defsig) refers to defsig_rtmem_inner.o(.text) for __rt_SIGRTMEM_inner
    libshutdown.o(.ARM.Collect$$libshutdown$$00000000) refers (Special) to libshutdown2.o(.ARM.Collect$$libshutdown$$00000002) for __rt_lib_shutdown_cpp_1
    libshutdown.o(.ARM.Collect$$libshutdown$$00000000) refers (Special) to libshutdown2.o(.ARM.Collect$$libshutdown$$00000007) for __rt_lib_shutdown_fp_trap_1
    libshutdown.o(.ARM.Collect$$libshutdown$$00000000) refers (Special) to libshutdown2.o(.ARM.Collect$$libshutdown$$0000000F) for __rt_lib_shutdown_heap_1
    libshutdown.o(.ARM.Collect$$libshutdown$$00000000) refers (Special) to libshutdown2.o(.ARM.Collect$$libshutdown$$00000010) for __rt_lib_shutdown_return
    libshutdown.o(.ARM.Collect$$libshutdown$$00000000) refers (Special) to libshutdown2.o(.ARM.Collect$$libshutdown$$0000000A) for __rt_lib_shutdown_signal_1
    libshutdown.o(.ARM.Collect$$libshutdown$$00000000) refers (Special) to libshutdown2.o(.ARM.Collect$$libshutdown$$00000004) for __rt_lib_shutdown_stdio_1
    libshutdown.o(.ARM.Collect$$libshutdown$$00000000) refers (Special) to libshutdown2.o(.ARM.Collect$$libshutdown$$0000000C) for __rt_lib_shutdown_user_alloc_1
    ldexp.o(i.__hardfp_ldexp) refers (Special) to usenofp.o(x$fpl$usenofp) for __I$use$fp
    ldexp.o(i.__hardfp_ldexp) refers to deqf.o(x$fpl$deqf) for __aeabi_cdcmpeq
    ldexp.o(i.__hardfp_ldexp) refers to scalbn.o(x$fpl$scalbn) for __ARM_scalbn
    ldexp.o(i.__hardfp_ldexp) refers to _rserrno.o(.text) for __set_errno
    ldexp.o(i.__hardfp_ldexp) refers to dunder.o(i.__mathlib_dbl_underflow) for __mathlib_dbl_underflow
    ldexp.o(i.__hardfp_ldexp) refers to dunder.o(i.__mathlib_dbl_overflow) for __mathlib_dbl_overflow
    ldexp.o(i.__softfp_ldexp) refers (Special) to usenofp.o(x$fpl$usenofp) for __I$use$fp
    ldexp.o(i.__softfp_ldexp) refers to ldexp.o(i.__hardfp_ldexp) for __hardfp_ldexp
    ldexp.o(i.__support_ldexp) refers (Special) to usenofp.o(x$fpl$usenofp) for __I$use$fp
    ldexp.o(i.__support_ldexp) refers to ldexp.o(i.__hardfp_ldexp) for __hardfp_ldexp
    ldexp.o(i.ldexp) refers (Special) to usenofp.o(x$fpl$usenofp) for __I$use$fp
    ldexp.o(i.ldexp) refers to ldexp.o(i.__hardfp_ldexp) for __hardfp_ldexp
    ldexp_x.o(i.____hardfp_ldexp$lsc) refers (Special) to usenofp.o(x$fpl$usenofp) for __I$use$fp
    ldexp_x.o(i.____hardfp_ldexp$lsc) refers to deqf.o(x$fpl$deqf) for __aeabi_cdcmpeq
    ldexp_x.o(i.____hardfp_ldexp$lsc) refers to scalbn.o(x$fpl$scalbn) for __ARM_scalbn
    ldexp_x.o(i.____hardfp_ldexp$lsc) refers to _rserrno.o(.text) for __set_errno
    ldexp_x.o(i.____hardfp_ldexp$lsc) refers to qnan.o(.constdata) for __mathlib_zero
    ldexp_x.o(i.____softfp_ldexp$lsc) refers (Special) to usenofp.o(x$fpl$usenofp) for __I$use$fp
    ldexp_x.o(i.____softfp_ldexp$lsc) refers to ldexp_x.o(i.____hardfp_ldexp$lsc) for ____hardfp_ldexp$lsc
    ldexp_x.o(i.____support_ldexp$lsc) refers (Special) to usenofp.o(x$fpl$usenofp) for __I$use$fp
    ldexp_x.o(i.____support_ldexp$lsc) refers to ldexp_x.o(i.____hardfp_ldexp$lsc) for ____hardfp_ldexp$lsc
    ldexp_x.o(i.__ldexp$lsc) refers (Special) to usenofp.o(x$fpl$usenofp) for __I$use$fp
    ldexp_x.o(i.__ldexp$lsc) refers to ldexp_x.o(i.____hardfp_ldexp$lsc) for ____hardfp_ldexp$lsc
    defsig_abrt_inner.o(.text) refers to defsig_general.o(.text) for __default_signal_display
    defsig_rtred_inner.o(.text) refers to defsig_general.o(.text) for __default_signal_display
    defsig_rtmem_inner.o(.text) refers to defsig_general.o(.text) for __default_signal_display
    defsig_stak_inner.o(.text) refers to defsig_general.o(.text) for __default_signal_display
    defsig_pvfn_inner.o(.text) refers to defsig_general.o(.text) for __default_signal_display
    defsig_cppl_inner.o(.text) refers to defsig_general.o(.text) for __default_signal_display
    defsig_segv_inner.o(.text) refers to defsig_general.o(.text) for __default_signal_display
    defsig_other.o(.text) refers to defsig_general.o(.text) for __default_signal_display
    scalbn.o(x$fpl$scalbn) refers (Special) to usenofp.o(x$fpl$usenofp) for __I$use$fp
    scalbn.o(x$fpl$scalbn) refers to dcheck1.o(x$fpl$dcheck1) for __fpl_dcheck_NaN1
    qnan.o(.constdata) refers (Special) to usenofp.o(x$fpl$usenofp) for __I$use$fp
    dcheck1.o(x$fpl$dcheck1) refers (Special) to usenofp.o(x$fpl$usenofp) for __I$use$fp
    dcheck1.o(x$fpl$dcheck1) refers to retnan.o(x$fpl$retnan) for __fpl_return_NaN
    retnan.o(x$fpl$retnan) refers (Special) to usenofp.o(x$fpl$usenofp) for __I$use$fp
    retnan.o(x$fpl$retnan) refers to trapv.o(x$fpl$trapveneer) for __fpl_cmpreturn
    trapv.o(x$fpl$trapveneer) refers (Special) to usenofp.o(x$fpl$usenofp) for __I$use$fp
    os_cpu.o(i.OSSetPrioRdy) refers to os_cpu.o(.data) for OSRdyTbl
    os_cpu.o(i.OSDelPrioRdy) refers to os_cpu.o(.data) for OSRdyTbl
    tft_lcd.o(i.LCD_WriteRAM_Prepare) refers to tft_lcd.o(i.LCD_REG_Select) for LCD_REG_Select


==============================================================================

Removing Unused input sections from the image.

    Removing app_touch.o(.rev16_text), (4 bytes).
    Removing app_touch.o(.revsh_text), (4 bytes).
    Removing app_touch.o(i.TouchStart_Judge), (56 bytes).
    Removing app_led.o(.rev16_text), (4 bytes).
    Removing app_led.o(.revsh_text), (4 bytes).
    Removing app_adf4351.o(.rev16_text), (4 bytes).
    Removing app_adf4351.o(.revsh_text), (4 bytes).
    Removing app_key.o(.rev16_text), (4 bytes).
    Removing app_key.o(.revsh_text), (4 bytes).
    Removing app_key.o(i.Key_Clear), (32 bytes).
    Removing app_key.o(i.Key_Get), (56 bytes).
    Removing app_adf4351_sweep.o(.rev16_text), (4 bytes).
    Removing app_adf4351_sweep.o(.revsh_text), (4 bytes).
    Removing app_switch.o(.rev16_text), (4 bytes).
    Removing app_switch.o(.revsh_text), (4 bytes).
    Removing app_freqana.o(.rev16_text), (4 bytes).
    Removing app_freqana.o(.revsh_text), (4 bytes).
    Removing app_freqana.o(.data), (4 bytes).
    Removing main.o(.rev16_text), (4 bytes).
    Removing main.o(.revsh_text), (4 bytes).
    Removing os_cpu.o(.rev16_text), (4 bytes).
    Removing os_cpu.o(.revsh_text), (4 bytes).
    Removing os_ui.o(.rev16_text), (4 bytes).
    Removing os_ui.o(.revsh_text), (4 bytes).
    Removing os_ui.o(i.Cursor_Data_Show), (1008 bytes).
    Removing os_ui.o(i.OS_BackColor_Set), (16 bytes).
    Removing os_ui.o(i.OS_Circle_Draw), (80 bytes).
    Removing os_ui.o(i.OS_Picture_Draw), (1248 bytes).
    Removing os_ui.o(i.OS_TextColor_Set), (16 bytes).
    Removing os_ui.o(i.OS_Wave_Draw), (36 bytes).
    Removing os_ui.o(i.OS_Wave_Line_Show), (3076 bytes).
    Removing os_ui.o(i.OS_Wave_Unite), (40 bytes).
    Removing os_ui.o(i.OS_Wave_Windows_Show), (556 bytes).
    Removing os_malloc.o(.rev16_text), (4 bytes).
    Removing os_malloc.o(.revsh_text), (4 bytes).
    Removing os_malloc.o(i.my_mem_free), (108 bytes).
    Removing os_malloc.o(i.my_mem_init), (68 bytes).
    Removing os_malloc.o(i.my_mem_malloc), (168 bytes).
    Removing os_malloc.o(i.my_mem_perused), (64 bytes).
    Removing os_malloc.o(i.myfree), (52 bytes).
    Removing os_malloc.o(i.mymalloc), (56 bytes).
    Removing os_malloc.o(i.mymemcpy), (26 bytes).
    Removing os_malloc.o(i.mymemset), (20 bytes).
    Removing os_malloc.o(i.myrealloc), (80 bytes).
    Removing os_malloc.o(.bss), (34816 bytes).
    Removing os_malloc.o(.constdata), (36 bytes).
    Removing os_malloc.o(.data), (36 bytes).
    Removing sys.o(.rev16_text), (4 bytes).
    Removing sys.o(.revsh_text), (4 bytes).
    Removing sys.o(.emb_text), (6 bytes).
    Removing sys.o(i.INTX_DISABLE), (4 bytes).
    Removing sys.o(i.INTX_ENABLE), (4 bytes).
    Removing sys.o(i.WFI_SET), (4 bytes).
    Removing delay.o(.rev16_text), (4 bytes).
    Removing delay.o(.revsh_text), (4 bytes).
    Removing usart.o(.rev16_text), (4 bytes).
    Removing usart.o(.revsh_text), (4 bytes).
    Removing usart.o(i.atk_8266_apsta_check), (136 bytes).
    Removing usart.o(i.atk_8266_at_response), (60 bytes).
    Removing usart.o(i.atk_8266_consta_check), (68 bytes).
    Removing usart.o(i.atk_8266_quit_trans), (112 bytes).
    Removing usart.o(i.atk_8266_send_data), (92 bytes).
    Removing drive_adc.o(.rev16_text), (4 bytes).
    Removing drive_adc.o(.revsh_text), (4 bytes).
    Removing drive_adc.o(i.ADC2_Init), (128 bytes).
    Removing drive_adc.o(i.ADC_Average_Get), (36 bytes).
    Removing drive_adc.o(i.ADC_Waveform_Get), (608 bytes).
    Removing drive_adc.o(i.Adc_Init), (140 bytes).
    Removing drive_adc.o(i.Get_Adc), (48 bytes).
    Removing drive_adc.o(i.Get_Adc_Average), (46 bytes).
    Removing drive_gpio.o(.rev16_text), (4 bytes).
    Removing drive_gpio.o(.revsh_text), (4 bytes).
    Removing drive_gpio.o(i.GPIO_ADF_Init), (52 bytes).
    Removing drive_gpio.o(i.GPIO_Data_Init), (48 bytes).
    Removing drive_gpio.o(i.GPIO_POW_Init), (60 bytes).
    Removing drive_dac.o(.rev16_text), (4 bytes).
    Removing drive_dac.o(.revsh_text), (4 bytes).
    Removing drive_dac.o(i.DAC1_Init), (96 bytes).
    Removing drive_dac.o(i.DAC1_Vol_Set), (14 bytes).
    Removing drive_dac.o(i.Dac1_Init), (88 bytes).
    Removing drive_dac.o(i.Dac1_Set_Vol), (124 bytes).
    Removing drive_dac.o(i.dacClose), (24 bytes).
    Removing drive_dac.o(i.dacInit), (224 bytes).
    Removing drive_dac.o(i.dacOpen), (24 bytes).
    Removing drive_dac.o(i.ddsDataInit), (72 bytes).
    Removing drive_dac.o(i.ddsSawtoothWave), (148 bytes).
    Removing drive_dac.o(i.ddsSinWave), (100 bytes).
    Removing drive_dac.o(i.ddsSquareWave), (128 bytes).
    Removing drive_dac.o(i.ddsTriangleWave), (194 bytes).
    Removing drive_dac.o(i.setDDS), (580 bytes).
    Removing drive_dac.o(i.timer6Init), (72 bytes).
    Removing drive_dac.o(.bss), (2020 bytes).
    Removing drive_dac.o(.constdata), (8 bytes).
    Removing drive_dac.o(.data), (4 bytes).
    Removing drive_interrupt.o(.rev16_text), (4 bytes).
    Removing drive_interrupt.o(.revsh_text), (4 bytes).
    Removing drive_interrupt.o(.bss), (56 bytes).
    Removing drive_interrupt.o(.data), (18 bytes).
    Removing drive_timer.o(.rev16_text), (4 bytes).
    Removing drive_timer.o(.revsh_text), (4 bytes).
    Removing drive_timer.o(i.TIM10_Init), (96 bytes).
    Removing drive_timer.o(i.TIM11_Init), (96 bytes).
    Removing drive_timer.o(i.TIM12_Init), (96 bytes).
    Removing drive_timer.o(i.TIM13_Init), (96 bytes).
    Removing drive_timer.o(i.TIM14_Init), (96 bytes).
    Removing drive_timer.o(i.TIM1_Init), (116 bytes).
    Removing drive_timer.o(i.TIM2_Init), (96 bytes).
    Removing drive_timer.o(i.TIM3_Init), (88 bytes).
    Removing drive_timer.o(i.TIM4_Init), (96 bytes).
    Removing drive_timer.o(i.TIM5_Init), (192 bytes).
    Removing drive_timer.o(i.TIM6_Init), (96 bytes).
    Removing drive_timer.o(i.TIM7_Init), (96 bytes).
    Removing drive_timer.o(i.TIM8_Init), (152 bytes).
    Removing drive_timer.o(i.TIM9_Init), (92 bytes).
    Removing drive_touch.o(.rev16_text), (4 bytes).
    Removing drive_touch.o(.revsh_text), (4 bytes).
    Removing drive_touchkey.o(.rev16_text), (4 bytes).
    Removing drive_touchkey.o(.revsh_text), (4 bytes).
    Removing drive_adf4351.o(.rev16_text), (4 bytes).
    Removing drive_adf4351.o(.revsh_text), (4 bytes).
    Removing drive_adf4351.o(i.ADF4351_Init_some), (32 bytes).
    Removing drive_adf4351.o(i.ADF_Input_GPIOInit), (2 bytes).
    Removing drive_adf4351.o(i.ReadToADF4351), (180 bytes).
    Removing drive_adf4351.o(i.delay), (10 bytes).
    Removing drive_adl5336.o(.rev16_text), (4 bytes).
    Removing drive_adl5336.o(.revsh_text), (4 bytes).
    Removing drive_adl5336.o(i.ADL5336_Init), (60 bytes).
    Removing drive_adl5336.o(i.ADL5336_Init2), (60 bytes).
    Removing drive_adl5336.o(i.ADL5336_Read), (132 bytes).
    Removing drive_adl5336.o(i.ADL5336_Read2), (132 bytes).
    Removing drive_adl5336.o(i.ADL5336_Writer), (160 bytes).
    Removing drive_adl5336.o(i.ADL5336_Writer2), (160 bytes).
    Removing drive_pid.o(.rev16_text), (4 bytes).
    Removing drive_pid.o(.revsh_text), (4 bytes).
    Removing drive_pid.o(i.pid_clc), (56 bytes).
    Removing drive_ads1256.o(.rev16_text), (4 bytes).
    Removing drive_ads1256.o(.revsh_text), (4 bytes).
    Removing drive_ads1256.o(i.ADS1256RREG), (80 bytes).
    Removing drive_ads1256.o(i.ADS1256_Init), (200 bytes).
    Removing drive_ads1256.o(i.Init_ADS1256_GPIO), (96 bytes).
    Removing drive_ads1256.o(i.Moving_Average_Filter), (118 bytes).
    Removing drive_communication.o(.rev16_text), (4 bytes).
    Removing drive_communication.o(.revsh_text), (4 bytes).
    Removing drive_communication.o(i.ESP8266_Server_Init), (196 bytes).
    Removing character.o(.rev16_text), (4 bytes).
    Removing character.o(.revsh_text), (4 bytes).
    Removing character.o(i.LCD_GB1616), (192 bytes).
    Removing character.o(i.LCD_GB3232), (200 bytes).
    Removing character.o(i.LCD_GB4848), (200 bytes).
    Removing character.o(i.Show_Str32), (112 bytes).
    Removing character.o(i.Show_Str48), (112 bytes).
    Removing character.o(.constdata), (6242 bytes).
    Removing fontupd.o(.rev16_text), (4 bytes).
    Removing fontupd.o(.revsh_text), (4 bytes).
    Removing spi.o(.rev16_text), (4 bytes).
    Removing spi.o(.revsh_text), (4 bytes).
    Removing text.o(.rev16_text), (4 bytes).
    Removing text.o(.revsh_text), (4 bytes).
    Removing text.o(i.Get_HzMat), (224 bytes).
    Removing text.o(i.Show_Font), (186 bytes).
    Removing tft_lcd.o(.rev16_text), (4 bytes).
    Removing tft_lcd.o(.revsh_text), (4 bytes).
    Removing tft_lcd.o(i.Display_Control), (88 bytes).
    Removing tft_lcd.o(i.LCD_Appoint_Clear), (72 bytes).
    Removing tft_lcd.o(i.LCD_Display0x), (132 bytes).
    Removing tft_lcd.o(i.LCD_DisplayNum), (112 bytes).
    Removing tft_lcd.o(i.LCD_DisplayOff), (12 bytes).
    Removing tft_lcd.o(i.LCD_DisplayOn), (12 bytes).
    Removing tft_lcd.o(i.LCD_DisplayStringLine), (264 bytes).
    Removing tft_lcd.o(i.LCD_Display_FloatNum), (272 bytes).
    Removing tft_lcd.o(i.LCD_DrawCircle), (256 bytes).
    Removing tft_lcd.o(i.LCD_DrawCircleS), (56 bytes).
    Removing tft_lcd.o(i.LCD_DrawLine), (92 bytes).
    Removing tft_lcd.o(i.LCD_DrawPoint), (82 bytes).
    Removing tft_lcd.o(i.LCD_DrawPoint_4), (162 bytes).
    Removing tft_lcd.o(i.LCD_DrawRect), (68 bytes).
    Removing tft_lcd.o(i.LCD_GetColors), (24 bytes).
    Removing tft_lcd.o(i.LCD_GetFont), (12 bytes).
    Removing tft_lcd.o(i.LCD_ReadReg), (12 bytes).
    Removing tft_lcd.o(i.LCD_SetBackColor), (16 bytes).
    Removing tft_lcd.o(i.LCD_SetColors), (28 bytes).
    Removing tft_lcd.o(i.LCD_SetFont), (16 bytes).
    Removing tft_lcd.o(i.LCD_SetTextColor), (16 bytes).
    Removing tft_lcd.o(i.LCD_ShowChar), (276 bytes).
    Removing tft_lcd.o(i.LCD_WeBMP_SIZE), (30 bytes).
    Removing tft_lcd.o(i.LCD_WriteReg), (10 bytes).
    Removing tft_lcd.o(i.TFT_DispChar), (492 bytes).
    Removing w25q64.o(.rev16_text), (4 bytes).
    Removing w25q64.o(.revsh_text), (4 bytes).
    Removing w25q64.o(i.W25Q64_Erase_Chip), (48 bytes).
    Removing w25q64.o(i.W25Q64_Erase_Sector), (72 bytes).
    Removing w25q64.o(i.W25Q64_PowerDown), (40 bytes).
    Removing w25q64.o(i.W25Q64_ReadSR), (48 bytes).
    Removing w25q64.o(i.W25Q64_WAKEUP), (40 bytes).
    Removing w25q64.o(i.W25Q64_Wait_Busy), (18 bytes).
    Removing w25q64.o(i.W25Q64_Write), (184 bytes).
    Removing w25q64.o(i.W25Q64_Write_Disable), (36 bytes).
    Removing w25q64.o(i.W25Q64_Write_Enable), (36 bytes).
    Removing w25q64.o(i.W25Q64_Write_NoCheck), (70 bytes).
    Removing w25q64.o(i.W25Q64_Write_Page), (92 bytes).
    Removing w25q64.o(i.W25Q64_Write_SR), (44 bytes).
    Removing w25q64.o(.bss), (4096 bytes).
    Removing stm32f4xx_adc.o(.rev16_text), (4 bytes).
    Removing stm32f4xx_adc.o(.revsh_text), (4 bytes).
    Removing stm32f4xx_adc.o(i.ADC_AnalogWatchdogCmd), (20 bytes).
    Removing stm32f4xx_adc.o(i.ADC_AnalogWatchdogSingleChannelConfig), (16 bytes).
    Removing stm32f4xx_adc.o(i.ADC_AnalogWatchdogThresholdsConfig), (6 bytes).
    Removing stm32f4xx_adc.o(i.ADC_AutoInjectedConvCmd), (22 bytes).
    Removing stm32f4xx_adc.o(i.ADC_ClearFlag), (6 bytes).
    Removing stm32f4xx_adc.o(i.ADC_ClearITPendingBit), (10 bytes).
    Removing stm32f4xx_adc.o(i.ADC_CommonStructInit), (12 bytes).
    Removing stm32f4xx_adc.o(i.ADC_ContinuousModeCmd), (22 bytes).
    Removing stm32f4xx_adc.o(i.ADC_DMACmd), (22 bytes).
    Removing stm32f4xx_adc.o(i.ADC_DMARequestAfterLastTransferCmd), (22 bytes).
    Removing stm32f4xx_adc.o(i.ADC_DeInit), (22 bytes).
    Removing stm32f4xx_adc.o(i.ADC_DiscModeChannelCountConfig), (24 bytes).
    Removing stm32f4xx_adc.o(i.ADC_DiscModeCmd), (22 bytes).
    Removing stm32f4xx_adc.o(i.ADC_EOCOnEachRegularChannelCmd), (22 bytes).
    Removing stm32f4xx_adc.o(i.ADC_ExternalTrigInjectedConvConfig), (16 bytes).
    Removing stm32f4xx_adc.o(i.ADC_ExternalTrigInjectedConvEdgeConfig), (16 bytes).
    Removing stm32f4xx_adc.o(i.ADC_GetITStatus), (38 bytes).
    Removing stm32f4xx_adc.o(i.ADC_GetInjectedConversionValue), (28 bytes).
    Removing stm32f4xx_adc.o(i.ADC_GetMultiModeConversionValue), (12 bytes).
    Removing stm32f4xx_adc.o(i.ADC_GetSoftwareStartConvStatus), (20 bytes).
    Removing stm32f4xx_adc.o(i.ADC_GetSoftwareStartInjectedConvCmdStatus), (20 bytes).
    Removing stm32f4xx_adc.o(i.ADC_ITConfig), (32 bytes).
    Removing stm32f4xx_adc.o(i.ADC_InjectedChannelConfig), (130 bytes).
    Removing stm32f4xx_adc.o(i.ADC_InjectedDiscModeCmd), (22 bytes).
    Removing stm32f4xx_adc.o(i.ADC_InjectedSequencerLengthConfig), (24 bytes).
    Removing stm32f4xx_adc.o(i.ADC_MultiModeDMARequestAfterLastTransferCmd), (44 bytes).
    Removing stm32f4xx_adc.o(i.ADC_SetInjectedOffset), (20 bytes).
    Removing stm32f4xx_adc.o(i.ADC_SoftwareStartInjectedConv), (10 bytes).
    Removing stm32f4xx_adc.o(i.ADC_StructInit), (20 bytes).
    Removing stm32f4xx_adc.o(i.ADC_TempSensorVrefintCmd), (44 bytes).
    Removing stm32f4xx_adc.o(i.ADC_VBATCmd), (44 bytes).
    Removing stm32f4xx_crc.o(.rev16_text), (4 bytes).
    Removing stm32f4xx_crc.o(.revsh_text), (4 bytes).
    Removing stm32f4xx_crc.o(i.CRC_CalcBlockCRC), (36 bytes).
    Removing stm32f4xx_crc.o(i.CRC_CalcCRC), (16 bytes).
    Removing stm32f4xx_crc.o(i.CRC_GetCRC), (12 bytes).
    Removing stm32f4xx_crc.o(i.CRC_GetIDRegister), (12 bytes).
    Removing stm32f4xx_crc.o(i.CRC_ResetDR), (12 bytes).
    Removing stm32f4xx_crc.o(i.CRC_SetIDRegister), (12 bytes).
    Removing stm32f4xx_dac.o(.rev16_text), (4 bytes).
    Removing stm32f4xx_dac.o(.revsh_text), (4 bytes).
    Removing stm32f4xx_dac.o(i.DAC_ClearFlag), (16 bytes).
    Removing stm32f4xx_dac.o(i.DAC_ClearITPendingBit), (16 bytes).
    Removing stm32f4xx_dac.o(i.DAC_DMACmd), (44 bytes).
    Removing stm32f4xx_dac.o(i.DAC_DeInit), (22 bytes).
    Removing stm32f4xx_dac.o(i.DAC_DualSoftwareTriggerCmd), (36 bytes).
    Removing stm32f4xx_dac.o(i.DAC_GetDataOutputValue), (36 bytes).
    Removing stm32f4xx_dac.o(i.DAC_GetFlagStatus), (32 bytes).
    Removing stm32f4xx_dac.o(i.DAC_GetITStatus), (48 bytes).
    Removing stm32f4xx_dac.o(i.DAC_ITConfig), (40 bytes).
    Removing stm32f4xx_dac.o(i.DAC_SetChannel1Data), (32 bytes).
    Removing stm32f4xx_dac.o(i.DAC_SetDualChannelData), (36 bytes).
    Removing stm32f4xx_dac.o(i.DAC_SoftwareTriggerCmd), (44 bytes).
    Removing stm32f4xx_dac.o(i.DAC_StructInit), (12 bytes).
    Removing stm32f4xx_dac.o(i.DAC_WaveGenerationCmd), (40 bytes).
    Removing stm32f4xx_dma.o(.rev16_text), (4 bytes).
    Removing stm32f4xx_dma.o(.revsh_text), (4 bytes).
    Removing stm32f4xx_dma.o(i.DMA_ClearFlag), (52 bytes).
    Removing stm32f4xx_dma.o(i.DMA_ClearITPendingBit), (52 bytes).
    Removing stm32f4xx_dma.o(i.DMA_Cmd), (22 bytes).
    Removing stm32f4xx_dma.o(i.DMA_DeInit), (344 bytes).
    Removing stm32f4xx_dma.o(i.DMA_DoubleBufferModeCmd), (22 bytes).
    Removing stm32f4xx_dma.o(i.DMA_DoubleBufferModeConfig), (24 bytes).
    Removing stm32f4xx_dma.o(i.DMA_FlowControllerConfig), (22 bytes).
    Removing stm32f4xx_dma.o(i.DMA_GetCmdStatus), (20 bytes).
    Removing stm32f4xx_dma.o(i.DMA_GetCurrDataCounter), (8 bytes).
    Removing stm32f4xx_dma.o(i.DMA_GetCurrentMemoryTarget), (20 bytes).
    Removing stm32f4xx_dma.o(i.DMA_GetFIFOStatus), (12 bytes).
    Removing stm32f4xx_dma.o(i.DMA_GetFlagStatus), (68 bytes).
    Removing stm32f4xx_dma.o(i.DMA_GetITStatus), (100 bytes).
    Removing stm32f4xx_dma.o(i.DMA_ITConfig), (58 bytes).
    Removing stm32f4xx_dma.o(i.DMA_Init), (88 bytes).
    Removing stm32f4xx_dma.o(i.DMA_MemoryTargetConfig), (10 bytes).
    Removing stm32f4xx_dma.o(i.DMA_PeriphIncOffsetSizeConfig), (22 bytes).
    Removing stm32f4xx_dma.o(i.DMA_SetCurrDataCounter), (4 bytes).
    Removing stm32f4xx_dma.o(i.DMA_StructInit), (34 bytes).
    Removing stm32f4xx_flash.o(.rev16_text), (4 bytes).
    Removing stm32f4xx_flash.o(.revsh_text), (4 bytes).
    Removing stm32f4xx_flash.o(i.FLASH_ClearFlag), (12 bytes).
    Removing stm32f4xx_flash.o(i.FLASH_DataCacheCmd), (36 bytes).
    Removing stm32f4xx_flash.o(i.FLASH_DataCacheReset), (20 bytes).
    Removing stm32f4xx_flash.o(i.FLASH_EraseAllBank1Sectors), (108 bytes).
    Removing stm32f4xx_flash.o(i.FLASH_EraseAllBank2Sectors), (108 bytes).
    Removing stm32f4xx_flash.o(i.FLASH_EraseAllSectors), (108 bytes).
    Removing stm32f4xx_flash.o(i.FLASH_EraseSector), (136 bytes).
    Removing stm32f4xx_flash.o(i.FLASH_GetFlagStatus), (24 bytes).
    Removing stm32f4xx_flash.o(i.FLASH_GetStatus), (84 bytes).
    Removing stm32f4xx_flash.o(i.FLASH_ITConfig), (32 bytes).
    Removing stm32f4xx_flash.o(i.FLASH_InstructionCacheCmd), (36 bytes).
    Removing stm32f4xx_flash.o(i.FLASH_InstructionCacheReset), (20 bytes).
    Removing stm32f4xx_flash.o(i.FLASH_Lock), (20 bytes).
    Removing stm32f4xx_flash.o(i.FLASH_OB_BORConfig), (28 bytes).
    Removing stm32f4xx_flash.o(i.FLASH_OB_BootConfig), (28 bytes).
    Removing stm32f4xx_flash.o(i.FLASH_OB_GetBOR), (16 bytes).
    Removing stm32f4xx_flash.o(i.FLASH_OB_GetPCROP), (12 bytes).
    Removing stm32f4xx_flash.o(i.FLASH_OB_GetPCROP1), (12 bytes).
    Removing stm32f4xx_flash.o(i.FLASH_OB_GetRDP), (24 bytes).
    Removing stm32f4xx_flash.o(i.FLASH_OB_GetUser), (16 bytes).
    Removing stm32f4xx_flash.o(i.FLASH_OB_GetWRP), (12 bytes).
    Removing stm32f4xx_flash.o(i.FLASH_OB_GetWRP1), (12 bytes).
    Removing stm32f4xx_flash.o(i.FLASH_OB_Launch), (32 bytes).
    Removing stm32f4xx_flash.o(i.FLASH_OB_Lock), (20 bytes).
    Removing stm32f4xx_flash.o(i.FLASH_OB_PCROP1Config), (52 bytes).
    Removing stm32f4xx_flash.o(i.FLASH_OB_PCROPConfig), (52 bytes).
    Removing stm32f4xx_flash.o(i.FLASH_OB_PCROPSelectionConfig), (24 bytes).
    Removing stm32f4xx_flash.o(i.FLASH_OB_RDPConfig), (28 bytes).
    Removing stm32f4xx_flash.o(i.FLASH_OB_Unlock), (36 bytes).
    Removing stm32f4xx_flash.o(i.FLASH_OB_UserConfig), (48 bytes).
    Removing stm32f4xx_flash.o(i.FLASH_OB_WRP1Config), (52 bytes).
    Removing stm32f4xx_flash.o(i.FLASH_OB_WRPConfig), (52 bytes).
    Removing stm32f4xx_flash.o(i.FLASH_PrefetchBufferCmd), (36 bytes).
    Removing stm32f4xx_flash.o(i.FLASH_ProgramByte), (76 bytes).
    Removing stm32f4xx_flash.o(i.FLASH_ProgramDoubleWord), (84 bytes).
    Removing stm32f4xx_flash.o(i.FLASH_ProgramHalfWord), (80 bytes).
    Removing stm32f4xx_flash.o(i.FLASH_ProgramWord), (80 bytes).
    Removing stm32f4xx_flash.o(i.FLASH_SetLatency), (12 bytes).
    Removing stm32f4xx_flash.o(i.FLASH_Unlock), (36 bytes).
    Removing stm32f4xx_flash.o(i.FLASH_WaitForLastOperation), (34 bytes).
    Removing stm32f4xx_exti.o(.rev16_text), (4 bytes).
    Removing stm32f4xx_exti.o(.revsh_text), (4 bytes).
    Removing stm32f4xx_exti.o(i.EXTI_ClearFlag), (12 bytes).
    Removing stm32f4xx_exti.o(i.EXTI_DeInit), (36 bytes).
    Removing stm32f4xx_exti.o(i.EXTI_GenerateSWInterrupt), (16 bytes).
    Removing stm32f4xx_exti.o(i.EXTI_GetFlagStatus), (24 bytes).
    Removing stm32f4xx_exti.o(i.EXTI_Init), (148 bytes).
    Removing stm32f4xx_exti.o(i.EXTI_StructInit), (16 bytes).
    Removing stm32f4xx_fsmc.o(.rev16_text), (4 bytes).
    Removing stm32f4xx_fsmc.o(.revsh_text), (4 bytes).
    Removing stm32f4xx_fsmc.o(i.FSMC_ClearFlag), (64 bytes).
    Removing stm32f4xx_fsmc.o(i.FSMC_ClearITPendingBit), (72 bytes).
    Removing stm32f4xx_fsmc.o(i.FSMC_GetECC), (28 bytes).
    Removing stm32f4xx_fsmc.o(i.FSMC_GetFlagStatus), (56 bytes).
    Removing stm32f4xx_fsmc.o(i.FSMC_GetITStatus), (68 bytes).
    Removing stm32f4xx_fsmc.o(i.FSMC_ITConfig), (128 bytes).
    Removing stm32f4xx_fsmc.o(i.FSMC_NANDCmd), (92 bytes).
    Removing stm32f4xx_fsmc.o(i.FSMC_NANDDeInit), (68 bytes).
    Removing stm32f4xx_fsmc.o(i.FSMC_NANDECCCmd), (92 bytes).
    Removing stm32f4xx_fsmc.o(i.FSMC_NANDInit), (136 bytes).
    Removing stm32f4xx_fsmc.o(i.FSMC_NANDStructInit), (54 bytes).
    Removing stm32f4xx_fsmc.o(i.FSMC_NORSRAMDeInit), (54 bytes).
    Removing stm32f4xx_fsmc.o(i.FSMC_NORSRAMStructInit), (52 bytes).
    Removing stm32f4xx_fsmc.o(i.FSMC_PCCARDCmd), (48 bytes).
    Removing stm32f4xx_fsmc.o(i.FSMC_PCCARDDeInit), (40 bytes).
    Removing stm32f4xx_fsmc.o(i.FSMC_PCCARDInit), (132 bytes).
    Removing stm32f4xx_fsmc.o(i.FSMC_PCCARDStructInit), (60 bytes).
    Removing stm32f4xx_fsmc.o(.constdata), (28 bytes).
    Removing stm32f4xx_gpio.o(.rev16_text), (4 bytes).
    Removing stm32f4xx_gpio.o(.revsh_text), (4 bytes).
    Removing stm32f4xx_gpio.o(i.GPIO_DeInit), (312 bytes).
    Removing stm32f4xx_gpio.o(i.GPIO_PinLockConfig), (34 bytes).
    Removing stm32f4xx_gpio.o(i.GPIO_ReadInputData), (8 bytes).
    Removing stm32f4xx_gpio.o(i.GPIO_ReadInputDataBit), (18 bytes).
    Removing stm32f4xx_gpio.o(i.GPIO_ReadOutputData), (8 bytes).
    Removing stm32f4xx_gpio.o(i.GPIO_ReadOutputDataBit), (18 bytes).
    Removing stm32f4xx_gpio.o(i.GPIO_StructInit), (18 bytes).
    Removing stm32f4xx_gpio.o(i.GPIO_ToggleBits), (8 bytes).
    Removing stm32f4xx_gpio.o(i.GPIO_Write), (4 bytes).
    Removing stm32f4xx_gpio.o(i.GPIO_WriteBit), (10 bytes).
    Removing stm32f4xx_i2c.o(.rev16_text), (4 bytes).
    Removing stm32f4xx_i2c.o(.revsh_text), (4 bytes).
    Removing stm32f4xx_i2c.o(i.I2C_ARPCmd), (24 bytes).
    Removing stm32f4xx_i2c.o(i.I2C_AcknowledgeConfig), (24 bytes).
    Removing stm32f4xx_i2c.o(i.I2C_AnalogFilterCmd), (24 bytes).
    Removing stm32f4xx_i2c.o(i.I2C_CalculatePEC), (24 bytes).
    Removing stm32f4xx_i2c.o(i.I2C_CheckEvent), (42 bytes).
    Removing stm32f4xx_i2c.o(i.I2C_ClearFlag), (12 bytes).
    Removing stm32f4xx_i2c.o(i.I2C_ClearITPendingBit), (12 bytes).
    Removing stm32f4xx_i2c.o(i.I2C_Cmd), (24 bytes).
    Removing stm32f4xx_i2c.o(i.I2C_DMACmd), (24 bytes).
    Removing stm32f4xx_i2c.o(i.I2C_DMALastTransferCmd), (24 bytes).
    Removing stm32f4xx_i2c.o(i.I2C_DeInit), (96 bytes).
    Removing stm32f4xx_i2c.o(i.I2C_DigitalFilterConfig), (22 bytes).
    Removing stm32f4xx_i2c.o(i.I2C_DualAddressCmd), (24 bytes).
    Removing stm32f4xx_i2c.o(i.I2C_FastModeDutyCycleConfig), (28 bytes).
    Removing stm32f4xx_i2c.o(i.I2C_GeneralCallCmd), (24 bytes).
    Removing stm32f4xx_i2c.o(i.I2C_GenerateSTART), (24 bytes).
    Removing stm32f4xx_i2c.o(i.I2C_GenerateSTOP), (24 bytes).
    Removing stm32f4xx_i2c.o(i.I2C_GetFlagStatus), (58 bytes).
    Removing stm32f4xx_i2c.o(i.I2C_GetITStatus), (38 bytes).
    Removing stm32f4xx_i2c.o(i.I2C_GetLastEvent), (26 bytes).
    Removing stm32f4xx_i2c.o(i.I2C_GetPEC), (8 bytes).
    Removing stm32f4xx_i2c.o(i.I2C_ITConfig), (18 bytes).
    Removing stm32f4xx_i2c.o(i.I2C_Init), (232 bytes).
    Removing stm32f4xx_i2c.o(i.I2C_NACKPositionConfig), (28 bytes).
    Removing stm32f4xx_i2c.o(i.I2C_OwnAddress2Config), (22 bytes).
    Removing stm32f4xx_i2c.o(i.I2C_PECPositionConfig), (28 bytes).
    Removing stm32f4xx_i2c.o(i.I2C_ReadRegister), (22 bytes).
    Removing stm32f4xx_i2c.o(i.I2C_ReceiveData), (8 bytes).
    Removing stm32f4xx_i2c.o(i.I2C_SMBusAlertConfig), (28 bytes).
    Removing stm32f4xx_i2c.o(i.I2C_Send7bitAddress), (16 bytes).
    Removing stm32f4xx_i2c.o(i.I2C_SendData), (4 bytes).
    Removing stm32f4xx_i2c.o(i.I2C_SoftwareResetCmd), (22 bytes).
    Removing stm32f4xx_i2c.o(i.I2C_StretchClockCmd), (24 bytes).
    Removing stm32f4xx_i2c.o(i.I2C_StructInit), (30 bytes).
    Removing stm32f4xx_i2c.o(i.I2C_TransmitPEC), (24 bytes).
    Removing stm32f4xx_rcc.o(.rev16_text), (4 bytes).
    Removing stm32f4xx_rcc.o(.revsh_text), (4 bytes).
    Removing stm32f4xx_rcc.o(i.RCC_AHB1PeriphClockLPModeCmd), (32 bytes).
    Removing stm32f4xx_rcc.o(i.RCC_AHB1PeriphResetCmd), (32 bytes).
    Removing stm32f4xx_rcc.o(i.RCC_AHB2PeriphClockCmd), (32 bytes).
    Removing stm32f4xx_rcc.o(i.RCC_AHB2PeriphClockLPModeCmd), (32 bytes).
    Removing stm32f4xx_rcc.o(i.RCC_AHB2PeriphResetCmd), (32 bytes).
    Removing stm32f4xx_rcc.o(i.RCC_AHB3PeriphClockLPModeCmd), (32 bytes).
    Removing stm32f4xx_rcc.o(i.RCC_AHB3PeriphResetCmd), (32 bytes).
    Removing stm32f4xx_rcc.o(i.RCC_APB1PeriphClockLPModeCmd), (32 bytes).
    Removing stm32f4xx_rcc.o(i.RCC_APB1PeriphResetCmd), (32 bytes).
    Removing stm32f4xx_rcc.o(i.RCC_APB2PeriphClockLPModeCmd), (32 bytes).
    Removing stm32f4xx_rcc.o(i.RCC_AdjustHSICalibrationValue), (24 bytes).
    Removing stm32f4xx_rcc.o(i.RCC_BackupResetCmd), (12 bytes).
    Removing stm32f4xx_rcc.o(i.RCC_ClearFlag), (20 bytes).
    Removing stm32f4xx_rcc.o(i.RCC_ClearITPendingBit), (12 bytes).
    Removing stm32f4xx_rcc.o(i.RCC_ClockSecuritySystemCmd), (12 bytes).
    Removing stm32f4xx_rcc.o(i.RCC_DeInit), (100 bytes).
    Removing stm32f4xx_rcc.o(i.RCC_GetFlagStatus), (64 bytes).
    Removing stm32f4xx_rcc.o(i.RCC_GetITStatus), (24 bytes).
    Removing stm32f4xx_rcc.o(i.RCC_GetSYSCLKSource), (16 bytes).
    Removing stm32f4xx_rcc.o(i.RCC_HCLKConfig), (24 bytes).
    Removing stm32f4xx_rcc.o(i.RCC_HSEConfig), (16 bytes).
    Removing stm32f4xx_rcc.o(i.RCC_HSICmd), (12 bytes).
    Removing stm32f4xx_rcc.o(i.RCC_I2SCLKConfig), (12 bytes).
    Removing stm32f4xx_rcc.o(i.RCC_ITConfig), (32 bytes).
    Removing stm32f4xx_rcc.o(i.RCC_LSEConfig), (44 bytes).
    Removing stm32f4xx_rcc.o(i.RCC_LSEModeConfig), (36 bytes).
    Removing stm32f4xx_rcc.o(i.RCC_LSICmd), (12 bytes).
    Removing stm32f4xx_rcc.o(i.RCC_LTDCCLKDivConfig), (24 bytes).
    Removing stm32f4xx_rcc.o(i.RCC_MCO1Config), (28 bytes).
    Removing stm32f4xx_rcc.o(i.RCC_MCO2Config), (28 bytes).
    Removing stm32f4xx_rcc.o(i.RCC_PCLK1Config), (24 bytes).
    Removing stm32f4xx_rcc.o(i.RCC_PCLK2Config), (24 bytes).
    Removing stm32f4xx_rcc.o(i.RCC_PLLCmd), (12 bytes).
    Removing stm32f4xx_rcc.o(i.RCC_PLLConfig), (36 bytes).
    Removing stm32f4xx_rcc.o(i.RCC_PLLI2SCmd), (12 bytes).
    Removing stm32f4xx_rcc.o(i.RCC_PLLI2SConfig), (16 bytes).
    Removing stm32f4xx_rcc.o(i.RCC_PLLSAICmd), (12 bytes).
    Removing stm32f4xx_rcc.o(i.RCC_PLLSAIConfig), (24 bytes).
    Removing stm32f4xx_rcc.o(i.RCC_RTCCLKCmd), (12 bytes).
    Removing stm32f4xx_rcc.o(i.RCC_RTCCLKConfig), (60 bytes).
    Removing stm32f4xx_rcc.o(i.RCC_SAIBlockACLKConfig), (24 bytes).
    Removing stm32f4xx_rcc.o(i.RCC_SAIBlockBCLKConfig), (24 bytes).
    Removing stm32f4xx_rcc.o(i.RCC_SAIPLLI2SClkDivConfig), (28 bytes).
    Removing stm32f4xx_rcc.o(i.RCC_SAIPLLSAIClkDivConfig), (28 bytes).
    Removing stm32f4xx_rcc.o(i.RCC_SYSCLKConfig), (24 bytes).
    Removing stm32f4xx_rcc.o(i.RCC_TIMCLKPresConfig), (12 bytes).
    Removing stm32f4xx_rcc.o(i.RCC_WaitForHSEStartUp), (56 bytes).
    Removing stm32f4xx_tim.o(.rev16_text), (4 bytes).
    Removing stm32f4xx_tim.o(.revsh_text), (4 bytes).
    Removing stm32f4xx_tim.o(i.TI1_Config), (58 bytes).
    Removing stm32f4xx_tim.o(i.TI2_Config), (80 bytes).
    Removing stm32f4xx_tim.o(i.TI3_Config), (72 bytes).
    Removing stm32f4xx_tim.o(i.TI4_Config), (80 bytes).
    Removing stm32f4xx_tim.o(i.TIM_ARRPreloadConfig), (24 bytes).
    Removing stm32f4xx_tim.o(i.TIM_BDTRConfig), (32 bytes).
    Removing stm32f4xx_tim.o(i.TIM_BDTRStructInit), (18 bytes).
    Removing stm32f4xx_tim.o(i.TIM_CCPreloadControl), (24 bytes).
    Removing stm32f4xx_tim.o(i.TIM_CCxCmd), (30 bytes).
    Removing stm32f4xx_tim.o(i.TIM_CCxNCmd), (30 bytes).
    Removing stm32f4xx_tim.o(i.TIM_ClearFlag), (6 bytes).
    Removing stm32f4xx_tim.o(i.TIM_ClearOC1Ref), (18 bytes).
    Removing stm32f4xx_tim.o(i.TIM_ClearOC2Ref), (24 bytes).
    Removing stm32f4xx_tim.o(i.TIM_ClearOC3Ref), (18 bytes).
    Removing stm32f4xx_tim.o(i.TIM_ClearOC4Ref), (24 bytes).
    Removing stm32f4xx_tim.o(i.TIM_Cmd), (24 bytes).
    Removing stm32f4xx_tim.o(i.TIM_CounterModeConfig), (18 bytes).
    Removing stm32f4xx_tim.o(i.TIM_CtrlPWMOutputs), (30 bytes).
    Removing stm32f4xx_tim.o(i.TIM_DMACmd), (18 bytes).
    Removing stm32f4xx_tim.o(i.TIM_DMAConfig), (10 bytes).
    Removing stm32f4xx_tim.o(i.TIM_DeInit), (400 bytes).
    Removing stm32f4xx_tim.o(i.TIM_ETRClockMode1Config), (54 bytes).
    Removing stm32f4xx_tim.o(i.TIM_ETRClockMode2Config), (32 bytes).
    Removing stm32f4xx_tim.o(i.TIM_ETRConfig), (28 bytes).
    Removing stm32f4xx_tim.o(i.TIM_EncoderInterfaceConfig), (66 bytes).
    Removing stm32f4xx_tim.o(i.TIM_ForcedOC1Config), (18 bytes).
    Removing stm32f4xx_tim.o(i.TIM_ForcedOC2Config), (26 bytes).
    Removing stm32f4xx_tim.o(i.TIM_ForcedOC3Config), (18 bytes).
    Removing stm32f4xx_tim.o(i.TIM_ForcedOC4Config), (26 bytes).
    Removing stm32f4xx_tim.o(i.TIM_GenerateEvent), (4 bytes).
    Removing stm32f4xx_tim.o(i.TIM_GetCapture1), (6 bytes).
    Removing stm32f4xx_tim.o(i.TIM_GetCapture2), (6 bytes).
    Removing stm32f4xx_tim.o(i.TIM_GetCapture3), (6 bytes).
    Removing stm32f4xx_tim.o(i.TIM_GetCapture4), (6 bytes).
    Removing stm32f4xx_tim.o(i.TIM_GetCounter), (6 bytes).
    Removing stm32f4xx_tim.o(i.TIM_GetFlagStatus), (18 bytes).
    Removing stm32f4xx_tim.o(i.TIM_GetPrescaler), (6 bytes).
    Removing stm32f4xx_tim.o(i.TIM_ICInit), (110 bytes).
    Removing stm32f4xx_tim.o(i.TIM_ICStructInit), (18 bytes).
    Removing stm32f4xx_tim.o(i.TIM_ITConfig), (18 bytes).
    Removing stm32f4xx_tim.o(i.TIM_ITRxExternalClockConfig), (24 bytes).
    Removing stm32f4xx_tim.o(i.TIM_InternalClockConfig), (12 bytes).
    Removing stm32f4xx_tim.o(i.TIM_OC1FastConfig), (18 bytes).
    Removing stm32f4xx_tim.o(i.TIM_OC1Init), (124 bytes).
    Removing stm32f4xx_tim.o(i.TIM_OC1NPolarityConfig), (18 bytes).
    Removing stm32f4xx_tim.o(i.TIM_OC1PolarityConfig), (18 bytes).
    Removing stm32f4xx_tim.o(i.TIM_OC1PreloadConfig), (18 bytes).
    Removing stm32f4xx_tim.o(i.TIM_OC2FastConfig), (26 bytes).
    Removing stm32f4xx_tim.o(i.TIM_OC2Init), (164 bytes).
    Removing stm32f4xx_tim.o(i.TIM_OC2NPolarityConfig), (26 bytes).
    Removing stm32f4xx_tim.o(i.TIM_OC2PolarityConfig), (26 bytes).
    Removing stm32f4xx_tim.o(i.TIM_OC2PreloadConfig), (26 bytes).
    Removing stm32f4xx_tim.o(i.TIM_OC3FastConfig), (18 bytes).
    Removing stm32f4xx_tim.o(i.TIM_OC3Init), (160 bytes).
    Removing stm32f4xx_tim.o(i.TIM_OC3NPolarityConfig), (26 bytes).
    Removing stm32f4xx_tim.o(i.TIM_OC3PolarityConfig), (26 bytes).
    Removing stm32f4xx_tim.o(i.TIM_OC3PreloadConfig), (18 bytes).
    Removing stm32f4xx_tim.o(i.TIM_OC4FastConfig), (26 bytes).
    Removing stm32f4xx_tim.o(i.TIM_OC4Init), (120 bytes).
    Removing stm32f4xx_tim.o(i.TIM_OC4PolarityConfig), (26 bytes).
    Removing stm32f4xx_tim.o(i.TIM_OC4PreloadConfig), (26 bytes).
    Removing stm32f4xx_tim.o(i.TIM_OCStructInit), (20 bytes).
    Removing stm32f4xx_tim.o(i.TIM_PWMIConfig), (124 bytes).
    Removing stm32f4xx_tim.o(i.TIM_PrescalerConfig), (6 bytes).
    Removing stm32f4xx_tim.o(i.TIM_RemapConfig), (6 bytes).
    Removing stm32f4xx_tim.o(i.TIM_SelectCCDMA), (24 bytes).
    Removing stm32f4xx_tim.o(i.TIM_SelectCOM), (24 bytes).
    Removing stm32f4xx_tim.o(i.TIM_SelectHallSensor), (24 bytes).
    Removing stm32f4xx_tim.o(i.TIM_SelectInputTrigger), (18 bytes).
    Removing stm32f4xx_tim.o(i.TIM_SelectMasterSlaveMode), (18 bytes).
    Removing stm32f4xx_tim.o(i.TIM_SelectOCxM), (86 bytes).
    Removing stm32f4xx_tim.o(i.TIM_SelectOnePulseMode), (18 bytes).
    Removing stm32f4xx_tim.o(i.TIM_SelectOutputTrigger), (18 bytes).
    Removing stm32f4xx_tim.o(i.TIM_SelectSlaveMode), (18 bytes).
    Removing stm32f4xx_tim.o(i.TIM_SetAutoreload), (4 bytes).
    Removing stm32f4xx_tim.o(i.TIM_SetClockDivision), (18 bytes).
    Removing stm32f4xx_tim.o(i.TIM_SetCompare1), (4 bytes).
    Removing stm32f4xx_tim.o(i.TIM_SetCompare2), (4 bytes).
    Removing stm32f4xx_tim.o(i.TIM_SetCompare3), (4 bytes).
    Removing stm32f4xx_tim.o(i.TIM_SetCompare4), (4 bytes).
    Removing stm32f4xx_tim.o(i.TIM_SetCounter), (4 bytes).
    Removing stm32f4xx_tim.o(i.TIM_SetIC1Prescaler), (18 bytes).
    Removing stm32f4xx_tim.o(i.TIM_SetIC2Prescaler), (26 bytes).
    Removing stm32f4xx_tim.o(i.TIM_SetIC3Prescaler), (18 bytes).
    Removing stm32f4xx_tim.o(i.TIM_SetIC4Prescaler), (26 bytes).
    Removing stm32f4xx_tim.o(i.TIM_TIxExternalClockConfig), (62 bytes).
    Removing stm32f4xx_tim.o(i.TIM_TimeBaseInit), (132 bytes).
    Removing stm32f4xx_tim.o(i.TIM_TimeBaseStructInit), (18 bytes).
    Removing stm32f4xx_tim.o(i.TIM_UpdateDisableConfig), (24 bytes).
    Removing stm32f4xx_tim.o(i.TIM_UpdateRequestConfig), (24 bytes).
    Removing stm32f4xx_usart.o(.rev16_text), (4 bytes).
    Removing stm32f4xx_usart.o(.revsh_text), (4 bytes).
    Removing stm32f4xx_usart.o(i.USART_ClearFlag), (18 bytes).
    Removing stm32f4xx_usart.o(i.USART_ClearITPendingBit), (30 bytes).
    Removing stm32f4xx_usart.o(i.USART_ClockInit), (32 bytes).
    Removing stm32f4xx_usart.o(i.USART_ClockStructInit), (12 bytes).
    Removing stm32f4xx_usart.o(i.USART_DMACmd), (18 bytes).
    Removing stm32f4xx_usart.o(i.USART_DeInit), (240 bytes).
    Removing stm32f4xx_usart.o(i.USART_HalfDuplexCmd), (24 bytes).
    Removing stm32f4xx_usart.o(i.USART_IrDACmd), (24 bytes).
    Removing stm32f4xx_usart.o(i.USART_IrDAConfig), (18 bytes).
    Removing stm32f4xx_usart.o(i.USART_LINBreakDetectLengthConfig), (18 bytes).
    Removing stm32f4xx_usart.o(i.USART_LINCmd), (24 bytes).
    Removing stm32f4xx_usart.o(i.USART_OneBitMethodCmd), (24 bytes).
    Removing stm32f4xx_usart.o(i.USART_OverSampling8Cmd), (22 bytes).
    Removing stm32f4xx_usart.o(i.USART_ReceiverWakeUpCmd), (24 bytes).
    Removing stm32f4xx_usart.o(i.USART_SendBreak), (10 bytes).
    Removing stm32f4xx_usart.o(i.USART_SetAddress), (18 bytes).
    Removing stm32f4xx_usart.o(i.USART_SetGuardTime), (16 bytes).
    Removing stm32f4xx_usart.o(i.USART_SetPrescaler), (16 bytes).
    Removing stm32f4xx_usart.o(i.USART_SmartCardCmd), (24 bytes).
    Removing stm32f4xx_usart.o(i.USART_SmartCardNACKCmd), (24 bytes).
    Removing stm32f4xx_usart.o(i.USART_StructInit), (24 bytes).
    Removing stm32f4xx_usart.o(i.USART_WakeUpConfig), (18 bytes).
    Removing misc.o(.rev16_text), (4 bytes).
    Removing misc.o(.revsh_text), (4 bytes).
    Removing misc.o(i.NVIC_PriorityGroupConfig), (20 bytes).
    Removing misc.o(i.NVIC_SetVectorTable), (20 bytes).
    Removing misc.o(i.NVIC_SystemLPConfig), (32 bytes).
    Removing stm32f4xx_spi.o(.rev16_text), (4 bytes).
    Removing stm32f4xx_spi.o(.revsh_text), (4 bytes).
    Removing stm32f4xx_spi.o(i.I2S_Cmd), (24 bytes).
    Removing stm32f4xx_spi.o(i.I2S_FullDuplexConfig), (80 bytes).
    Removing stm32f4xx_spi.o(i.I2S_Init), (408 bytes).
    Removing stm32f4xx_spi.o(i.I2S_StructInit), (20 bytes).
    Removing stm32f4xx_spi.o(i.SPI_BiDirectionalLineConfig), (28 bytes).
    Removing stm32f4xx_spi.o(i.SPI_CalculateCRC), (24 bytes).
    Removing stm32f4xx_spi.o(i.SPI_DataSizeConfig), (18 bytes).
    Removing stm32f4xx_spi.o(i.SPI_GetCRC), (16 bytes).
    Removing stm32f4xx_spi.o(i.SPI_GetCRCPolynomial), (6 bytes).
    Removing stm32f4xx_spi.o(i.SPI_I2S_ClearFlag), (6 bytes).
    Removing stm32f4xx_spi.o(i.SPI_I2S_ClearITPendingBit), (20 bytes).
    Removing stm32f4xx_spi.o(i.SPI_I2S_DMACmd), (18 bytes).
    Removing stm32f4xx_spi.o(i.SPI_I2S_DeInit), (176 bytes).
    Removing stm32f4xx_spi.o(i.SPI_I2S_GetITStatus), (52 bytes).
    Removing stm32f4xx_spi.o(i.SPI_I2S_ITConfig), (32 bytes).
    Removing stm32f4xx_spi.o(i.SPI_NSSInternalSoftwareConfig), (30 bytes).
    Removing stm32f4xx_spi.o(i.SPI_SSOutputCmd), (24 bytes).
    Removing stm32f4xx_spi.o(i.SPI_StructInit), (24 bytes).
    Removing stm32f4xx_spi.o(i.SPI_TIModeCmd), (24 bytes).
    Removing stm32f4xx_spi.o(i.SPI_TransmitCRC), (10 bytes).
    Removing stm32f4xx_syscfg.o(.rev16_text), (4 bytes).
    Removing stm32f4xx_syscfg.o(.revsh_text), (4 bytes).
    Removing stm32f4xx_syscfg.o(i.SYSCFG_CompensationCellCmd), (12 bytes).
    Removing stm32f4xx_syscfg.o(i.SYSCFG_DeInit), (22 bytes).
    Removing stm32f4xx_syscfg.o(i.SYSCFG_ETH_MediaInterfaceConfig), (12 bytes).
    Removing stm32f4xx_syscfg.o(i.SYSCFG_EXTILineConfig), (64 bytes).
    Removing stm32f4xx_syscfg.o(i.SYSCFG_GetCompensationCellStatus), (24 bytes).
    Removing stm32f4xx_syscfg.o(i.SYSCFG_MemoryRemapConfig), (12 bytes).
    Removing stm32f4xx_syscfg.o(i.SYSCFG_MemorySwappingBank), (12 bytes).
    Removing stm32f4xx_can.o(.rev16_text), (4 bytes).
    Removing stm32f4xx_can.o(.revsh_text), (4 bytes).
    Removing stm32f4xx_can.o(i.CAN_CancelTransmit), (48 bytes).
    Removing stm32f4xx_can.o(i.CAN_ClearFlag), (56 bytes).
    Removing stm32f4xx_can.o(i.CAN_ClearITPendingBit), (168 bytes).
    Removing stm32f4xx_can.o(i.CAN_DBGFreeze), (22 bytes).
    Removing stm32f4xx_can.o(i.CAN_DeInit), (56 bytes).
    Removing stm32f4xx_can.o(i.CAN_FIFORelease), (22 bytes).
    Removing stm32f4xx_can.o(i.CAN_FilterInit), (264 bytes).
    Removing stm32f4xx_can.o(i.CAN_GetFlagStatus), (120 bytes).
    Removing stm32f4xx_can.o(i.CAN_GetITStatus), (288 bytes).
    Removing stm32f4xx_can.o(i.CAN_GetLSBTransmitErrorCounter), (12 bytes).
    Removing stm32f4xx_can.o(i.CAN_GetLastErrorCode), (12 bytes).
    Removing stm32f4xx_can.o(i.CAN_GetReceiveErrorCounter), (10 bytes).
    Removing stm32f4xx_can.o(i.CAN_ITConfig), (18 bytes).
    Removing stm32f4xx_can.o(i.CAN_Init), (276 bytes).
    Removing stm32f4xx_can.o(i.CAN_MessagePending), (30 bytes).
    Removing stm32f4xx_can.o(i.CAN_OperatingModeRequest), (162 bytes).
    Removing stm32f4xx_can.o(i.CAN_Receive), (240 bytes).
    Removing stm32f4xx_can.o(i.CAN_SlaveStartBank), (52 bytes).
    Removing stm32f4xx_can.o(i.CAN_Sleep), (30 bytes).
    Removing stm32f4xx_can.o(i.CAN_StructInit), (32 bytes).
    Removing stm32f4xx_can.o(i.CAN_TTComModeCmd), (118 bytes).
    Removing stm32f4xx_can.o(i.CAN_Transmit), (294 bytes).
    Removing stm32f4xx_can.o(i.CAN_TransmitStatus), (160 bytes).
    Removing stm32f4xx_can.o(i.CAN_WakeUp), (48 bytes).
    Removing stm32f4xx_can.o(i.CheckITStatus), (18 bytes).
    Removing stm32f4xx_it.o(.rev16_text), (4 bytes).
    Removing stm32f4xx_it.o(.revsh_text), (4 bytes).
    Removing system_stm32f4xx.o(.rev16_text), (4 bytes).
    Removing system_stm32f4xx.o(.revsh_text), (4 bytes).
    Removing system_stm32f4xx.o(i.SystemCoreClockUpdate), (192 bytes).

632 unused section(s) (total 82264 bytes) removed from the image.

==============================================================================

Image Symbol Table

    Local Symbols

    Symbol Name                              Value     Ov Type        Size  Object(Section)

    ../clib/angel/boardlib.s                 0x00000000   Number         0  boardshut.o ABSOLUTE
    ../clib/angel/boardlib.s                 0x00000000   Number         0  boardinit3.o ABSOLUTE
    ../clib/angel/boardlib.s                 0x00000000   Number         0  boardinit2.o ABSOLUTE
    ../clib/angel/boardlib.s                 0x00000000   Number         0  boardinit1.o ABSOLUTE
    ../clib/angel/handlers.s                 0x00000000   Number         0  __scatter_copy.o ABSOLUTE
    ../clib/angel/handlers.s                 0x00000000   Number         0  __scatter_zi.o ABSOLUTE
    ../clib/angel/kernel.s                   0x00000000   Number         0  __rtentry4.o ABSOLUTE
    ../clib/angel/kernel.s                   0x00000000   Number         0  __rtentry2.o ABSOLUTE
    ../clib/angel/kernel.s                   0x00000000   Number         0  __rtentry.o ABSOLUTE
    ../clib/angel/kernel.s                   0x00000000   Number         0  rtexit.o ABSOLUTE
    ../clib/angel/kernel.s                   0x00000000   Number         0  rtexit2.o ABSOLUTE
    ../clib/angel/rt.s                       0x00000000   Number         0  aeabi_ldiv0.o ABSOLUTE
    ../clib/angel/rt.s                       0x00000000   Number         0  rt_errno_addr.o ABSOLUTE
    ../clib/angel/rt.s                       0x00000000   Number         0  rt_locale_intlibspace.o ABSOLUTE
    ../clib/angel/rt.s                       0x00000000   Number         0  rt_locale.o ABSOLUTE
    ../clib/angel/rt.s                       0x00000000   Number         0  rt_div0.o ABSOLUTE
    ../clib/angel/rt.s                       0x00000000   Number         0  rt_raise.o ABSOLUTE
    ../clib/angel/rt.s                       0x00000000   Number         0  aeabi_ldiv0_sigfpe.o ABSOLUTE
    ../clib/angel/rt.s                       0x00000000   Number         0  rt_errno_addr_intlibspace.o ABSOLUTE
    ../clib/angel/rt.s                       0x00000000   Number         0  rt_ctype_table.o ABSOLUTE
    ../clib/angel/scatter.s                  0x00000000   Number         0  __scatter.o ABSOLUTE
    ../clib/angel/startup.s                  0x00000000   Number         0  __main.o ABSOLUTE
    ../clib/angel/sys.s                      0x00000000   Number         0  indicate_semi.o ABSOLUTE
    ../clib/angel/sys.s                      0x00000000   Number         0  use_no_semi.o ABSOLUTE
    ../clib/angel/sys.s                      0x00000000   Number         0  sys_stackheap_outer.o ABSOLUTE
    ../clib/angel/sys.s                      0x00000000   Number         0  libspace.o ABSOLUTE
    ../clib/angel/sys.s                      0x00000000   Number         0  use_no_semi_2.o ABSOLUTE
    ../clib/angel/sysapp.c                   0x00000000   Number         0  sys_wrch.o ABSOLUTE
    ../clib/angel/sysapp.c                   0x00000000   Number         0  sys_command.o ABSOLUTE
    ../clib/armsys.c                         0x00000000   Number         0  argv_veneer.o ABSOLUTE
    ../clib/armsys.c                         0x00000000   Number         0  no_argv.o ABSOLUTE
    ../clib/armsys.c                         0x00000000   Number         0  argv_veneer.o ABSOLUTE
    ../clib/armsys.c                         0x00000000   Number         0  _get_argv_nomalloc.o ABSOLUTE
    ../clib/bigflt.c                         0x00000000   Number         0  bigflt0.o ABSOLUTE
    ../clib/btod.s                           0x00000000   Number         0  btod.o ABSOLUTE
    ../clib/ctype.c                          0x00000000   Number         0  isspace.o ABSOLUTE
    ../clib/fenv.c                           0x00000000   Number         0  _rserrno.o ABSOLUTE
    ../clib/heapalloc.c                      0x00000000   Number         0  hrguard.o ABSOLUTE
    ../clib/heapaux.c                        0x00000000   Number         0  heapauxi.o ABSOLUTE
    ../clib/libinit.s                        0x00000000   Number         0  libshutdown2.o ABSOLUTE
    ../clib/libinit.s                        0x00000000   Number         0  libinit2.o ABSOLUTE
    ../clib/libinit.s                        0x00000000   Number         0  libinit.o ABSOLUTE
    ../clib/libinit.s                        0x00000000   Number         0  libshutdown.o ABSOLUTE
    ../clib/locale.s                         0x00000000   Number         0  lc_ctype_c.o ABSOLUTE
    ../clib/locale.s                         0x00000000   Number         0  lc_numeric_c.o ABSOLUTE
    ../clib/longlong.s                       0x00000000   Number         0  lludiv10.o ABSOLUTE
    ../clib/longlong.s                       0x00000000   Number         0  lludivv7m.o ABSOLUTE
    ../clib/longlong.s                       0x00000000   Number         0  llshl.o ABSOLUTE
    ../clib/memcpset.s                       0x00000000   Number         0  rt_memclr_w.o ABSOLUTE
    ../clib/memcpset.s                       0x00000000   Number         0  rt_memcpy_w.o ABSOLUTE
    ../clib/memcpset.s                       0x00000000   Number         0  strcmpv7m.o ABSOLUTE
    ../clib/misc.s                           0x00000000   Number         0  printf_stubs.o ABSOLUTE
    ../clib/printf.c                         0x00000000   Number         0  _printf_char_common.o ABSOLUTE
    ../clib/printf.c                         0x00000000   Number         0  _printf_fp_hex.o ABSOLUTE
    ../clib/printf.c                         0x00000000   Number         0  _printf_fp_dec.o ABSOLUTE
    ../clib/printf.c                         0x00000000   Number         0  _sputc.o ABSOLUTE
    ../clib/printf.c                         0x00000000   Number         0  _printf_fp_infnan.o ABSOLUTE
    ../clib/printf.c                         0x00000000   Number         0  __printf_nopercent.o ABSOLUTE
    ../clib/printf.c                         0x00000000   Number         0  __printf_ss_wp.o ABSOLUTE
    ../clib/printf.c                         0x00000000   Number         0  __printf_ss.o ABSOLUTE
    ../clib/printf.c                         0x00000000   Number         0  __printf_flags_ss.o ABSOLUTE
    ../clib/printf.c                         0x00000000   Number         0  __printf_wp.o ABSOLUTE
    ../clib/printf.c                         0x00000000   Number         0  __printf_flags_ss_wp.o ABSOLUTE
    ../clib/printf.c                         0x00000000   Number         0  _printf_char_file.o ABSOLUTE
    ../clib/printf.c                         0x00000000   Number         0  _printf_char.o ABSOLUTE
    ../clib/printf.c                         0x00000000   Number         0  __printf_flags_wp.o ABSOLUTE
    ../clib/printf.c                         0x00000000   Number         0  __2printf.o ABSOLUTE
    ../clib/printf.c                         0x00000000   Number         0  __2sprintf.o ABSOLUTE
    ../clib/printf.c                         0x00000000   Number         0  noretval__2printf.o ABSOLUTE
    ../clib/printf.c                         0x00000000   Number         0  noretval__2sprintf.o ABSOLUTE
    ../clib/printf.c                         0x00000000   Number         0  __printf.o ABSOLUTE
    ../clib/printf.c                         0x00000000   Number         0  _printf_pad.o ABSOLUTE
    ../clib/printf.c                         0x00000000   Number         0  _printf_str.o ABSOLUTE
    ../clib/printf.c                         0x00000000   Number         0  __printf_flags.o ABSOLUTE
    ../clib/printf_percent.s                 0x00000000   Number         0  _printf_percent_end.o ABSOLUTE
    ../clib/printf_percent.s                 0x00000000   Number         0  _printf_s.o ABSOLUTE
    ../clib/printf_percent.s                 0x00000000   Number         0  _printf_e.o ABSOLUTE
    ../clib/printf_percent.s                 0x00000000   Number         0  _printf_g.o ABSOLUTE
    ../clib/printf_percent.s                 0x00000000   Number         0  _printf_f.o ABSOLUTE
    ../clib/printf_percent.s                 0x00000000   Number         0  _printf_percent.o ABSOLUTE
    ../clib/printf_percent.s                 0x00000000   Number         0  _printf_a.o ABSOLUTE
    ../clib/scanf.c                          0x00000000   Number         0  strtod.o ABSOLUTE
    ../clib/scanf.c                          0x00000000   Number         0  scanf_hexfp.o ABSOLUTE
    ../clib/scanf.c                          0x00000000   Number         0  _chval.o ABSOLUTE
    ../clib/scanf.c                          0x00000000   Number         0  _sgetc.o ABSOLUTE
    ../clib/scanf.c                          0x00000000   Number         0  scanf_fp.o ABSOLUTE
    ../clib/scanf.c                          0x00000000   Number         0  scanf_infnan.o ABSOLUTE
    ../clib/signal.c                         0x00000000   Number         0  defsig_pvfn_inner.o ABSOLUTE
    ../clib/signal.c                         0x00000000   Number         0  defsig_rtmem_inner.o ABSOLUTE
    ../clib/signal.c                         0x00000000   Number         0  defsig_rtred_inner.o ABSOLUTE
    ../clib/signal.c                         0x00000000   Number         0  defsig_abrt_inner.o ABSOLUTE
    ../clib/signal.c                         0x00000000   Number         0  defsig_stak_inner.o ABSOLUTE
    ../clib/signal.c                         0x00000000   Number         0  __raise.o ABSOLUTE
    ../clib/signal.c                         0x00000000   Number         0  defsig_fpe_outer.o ABSOLUTE
    ../clib/signal.c                         0x00000000   Number         0  defsig_fpe_formal.o ABSOLUTE
    ../clib/signal.c                         0x00000000   Number         0  defsig_cppl_inner.o ABSOLUTE
    ../clib/signal.c                         0x00000000   Number         0  defsig_rtmem_outer.o ABSOLUTE
    ../clib/signal.c                         0x00000000   Number         0  defsig_rtmem_formal.o ABSOLUTE
    ../clib/signal.c                         0x00000000   Number         0  defsig_other.o ABSOLUTE
    ../clib/signal.c                         0x00000000   Number         0  defsig_exit.o ABSOLUTE
    ../clib/signal.c                         0x00000000   Number         0  defsig_fpe_inner.o ABSOLUTE
    ../clib/signal.c                         0x00000000   Number         0  defsig_segv_inner.o ABSOLUTE
    ../clib/signal.c                         0x00000000   Number         0  defsig_general.o ABSOLUTE
    ../clib/signal.s                         0x00000000   Number         0  defsig.o ABSOLUTE
    ../clib/stdio.c                          0x00000000   Number         0  ferror.o ABSOLUTE
    ../clib/stdio.c                          0x00000000   Number         0  ferror_locked.o ABSOLUTE
    ../clib/stdlib.c                         0x00000000   Number         0  exit.o ABSOLUTE
    ../clib/string.c                         0x00000000   Number         0  strstr.o ABSOLUTE
    ../fplib/basic.s                         0x00000000   Number         0  basic.o ABSOLUTE
    ../fplib/d2f.s                           0x00000000   Number         0  d2f.o ABSOLUTE
    ../fplib/daddsub.s                       0x00000000   Number         0  daddsub_clz.o ABSOLUTE
    ../fplib/dcheck1.s                       0x00000000   Number         0  dcheck1.o ABSOLUTE
    ../fplib/dcmpi.s                         0x00000000   Number         0  dcmpi.o ABSOLUTE
    ../fplib/ddiv.s                          0x00000000   Number         0  ddiv.o ABSOLUTE
    ../fplib/deqf.s                          0x00000000   Number         0  deqf.o ABSOLUTE
    ../fplib/dfix.s                          0x00000000   Number         0  dfix.o ABSOLUTE
    ../fplib/dfixu.s                         0x00000000   Number         0  dfixu.o ABSOLUTE
    ../fplib/dfixull.s                       0x00000000   Number         0  dfixull.o ABSOLUTE
    ../fplib/dflt.s                          0x00000000   Number         0  dflt_clz.o ABSOLUTE
    ../fplib/dleqf.s                         0x00000000   Number         0  dleqf.o ABSOLUTE
    ../fplib/dmul.s                          0x00000000   Number         0  dmul.o ABSOLUTE
    ../fplib/dnaninf.s                       0x00000000   Number         0  dnaninf.o ABSOLUTE
    ../fplib/dretinf.s                       0x00000000   Number         0  dretinf.o ABSOLUTE
    ../fplib/drleqf.s                        0x00000000   Number         0  drleqf.o ABSOLUTE
    ../fplib/f2d.s                           0x00000000   Number         0  f2d.o ABSOLUTE
    ../fplib/fnaninf.s                       0x00000000   Number         0  fnaninf.o ABSOLUTE
    ../fplib/fpconst.s                       0x00000000   Number         0  fpconst.o ABSOLUTE
    ../fplib/fpinit.s                        0x00000000   Number         0  fpinit.o ABSOLUTE
    ../fplib/fretinf.s                       0x00000000   Number         0  fretinf.o ABSOLUTE
    ../fplib/istatus.s                       0x00000000   Number         0  istatus.o ABSOLUTE
    ../fplib/printf1.s                       0x00000000   Number         0  printf1.o ABSOLUTE
    ../fplib/printf2.s                       0x00000000   Number         0  printf2.o ABSOLUTE
    ../fplib/printf2a.s                      0x00000000   Number         0  printf2a.o ABSOLUTE
    ../fplib/printf2b.s                      0x00000000   Number         0  printf2b.o ABSOLUTE
    ../fplib/retnan.s                        0x00000000   Number         0  retnan.o ABSOLUTE
    ../fplib/scalbn.s                        0x00000000   Number         0  scalbn.o ABSOLUTE
    ../fplib/scanf1.s                        0x00000000   Number         0  scanf1.o ABSOLUTE
    ../fplib/scanf2.s                        0x00000000   Number         0  scanf2.o ABSOLUTE
    ../fplib/scanf2a.s                       0x00000000   Number         0  scanf2a.o ABSOLUTE
    ../fplib/scanf2b.s                       0x00000000   Number         0  scanf2b.o ABSOLUTE
    ../fplib/trapv.s                         0x00000000   Number         0  trapv.o ABSOLUTE
    ../fplib/usenofp.s                       0x00000000   Number         0  usenofp.o ABSOLUTE
    ../mathlib/atof.c                        0x00000000   Number         0  atof.o ABSOLUTE
    ../mathlib/cos_i.c                       0x00000000   Number         0  cos_i.o ABSOLUTE
    ../mathlib/dunder.c                      0x00000000   Number         0  dunder.o ABSOLUTE
    ../mathlib/fabs.c                        0x00000000   Number         0  fabs.o ABSOLUTE
    ../mathlib/fpclassify.c                  0x00000000   Number         0  fpclassify.o ABSOLUTE
    ../mathlib/fpclassifyf.c                 0x00000000   Number         0  fpclassifyf.o ABSOLUTE
    ../mathlib/frexp.c                       0x00000000   Number         0  frexp.o ABSOLUTE
    ../mathlib/funder.c                      0x00000000   Number         0  funder.o ABSOLUTE
    ../mathlib/ldexp.c                       0x00000000   Number         0  ldexp_x.o ABSOLUTE
    ../mathlib/ldexp.c                       0x00000000   Number         0  ldexp.o ABSOLUTE
    ../mathlib/log10f.c                      0x00000000   Number         0  log10f_x.o ABSOLUTE
    ../mathlib/log10f.c                      0x00000000   Number         0  log10f.o ABSOLUTE
    ../mathlib/narrow.c                      0x00000000   Number         0  narrow.o ABSOLUTE
    ../mathlib/poly.c                        0x00000000   Number         0  poly.o ABSOLUTE
    ../mathlib/powf.c                        0x00000000   Number         0  powf_x.o ABSOLUTE
    ../mathlib/powf.c                        0x00000000   Number         0  powf.o ABSOLUTE
    ../mathlib/qnan.c                        0x00000000   Number         0  qnan.o ABSOLUTE
    ../mathlib/rred.c                        0x00000000   Number         0  rred.o ABSOLUTE
    ../mathlib/sin.c                         0x00000000   Number         0  sin_x.o ABSOLUTE
    ../mathlib/sin.c                         0x00000000   Number         0  sin.o ABSOLUTE
    ../mathlib/sin_i.c                       0x00000000   Number         0  sin_i.o ABSOLUTE
    ../mathlib/sin_i.c                       0x00000000   Number         0  sin_i_x.o ABSOLUTE
    _01_App\App_ADF4351.c                    0x00000000   Number         0  app_adf4351.o ABSOLUTE
    _01_App\App_ADF4351_Sweep.c              0x00000000   Number         0  app_adf4351_sweep.o ABSOLUTE
    _01_App\App_FreqAna.c                    0x00000000   Number         0  app_freqana.o ABSOLUTE
    _01_App\App_LED.c                        0x00000000   Number         0  app_led.o ABSOLUTE
    _01_App\App_Switch.c                     0x00000000   Number         0  app_switch.o ABSOLUTE
    _01_App\App_Touch.c                      0x00000000   Number         0  app_touch.o ABSOLUTE
    _01_App\App_key.c                        0x00000000   Number         0  app_key.o ABSOLUTE
    _01_App\\App_ADF4351.c                   0x00000000   Number         0  app_adf4351.o ABSOLUTE
    _01_App\\App_ADF4351_Sweep.c             0x00000000   Number         0  app_adf4351_sweep.o ABSOLUTE
    _01_App\\App_FreqAna.c                   0x00000000   Number         0  app_freqana.o ABSOLUTE
    _01_App\\App_LED.c                       0x00000000   Number         0  app_led.o ABSOLUTE
    _01_App\\App_Switch.c                    0x00000000   Number         0  app_switch.o ABSOLUTE
    _01_App\\App_Touch.c                     0x00000000   Number         0  app_touch.o ABSOLUTE
    _01_App\\App_key.c                       0x00000000   Number         0  app_key.o ABSOLUTE
    _02_Core\\stm32f4xx_it.c                 0x00000000   Number         0  stm32f4xx_it.o ABSOLUTE
    _02_Core\\system_stm32f4xx.c             0x00000000   Number         0  system_stm32f4xx.o ABSOLUTE
    _02_Core\startup_stm32f40_41xxx.s        0x00000000   Number         0  startup_stm32f40_41xxx.o ABSOLUTE
    _02_Core\stm32f4xx_it.c                  0x00000000   Number         0  stm32f4xx_it.o ABSOLUTE
    _02_Core\system_stm32f4xx.c              0x00000000   Number         0  system_stm32f4xx.o ABSOLUTE
    _03_Drive\Drive_ADC.c                    0x00000000   Number         0  drive_adc.o ABSOLUTE
    _03_Drive\Drive_ADF4351.c                0x00000000   Number         0  drive_adf4351.o ABSOLUTE
    _03_Drive\Drive_ADL5336.c                0x00000000   Number         0  drive_adl5336.o ABSOLUTE
    _03_Drive\Drive_ADS1256.c                0x00000000   Number         0  drive_ads1256.o ABSOLUTE
    _03_Drive\Drive_Communication.c          0x00000000   Number         0  drive_communication.o ABSOLUTE
    _03_Drive\Drive_DAC.c                    0x00000000   Number         0  drive_dac.o ABSOLUTE
    _03_Drive\Drive_GPIO.c                   0x00000000   Number         0  drive_gpio.o ABSOLUTE
    _03_Drive\Drive_Interrupt.c              0x00000000   Number         0  drive_interrupt.o ABSOLUTE
    _03_Drive\Drive_PID.c                    0x00000000   Number         0  drive_pid.o ABSOLUTE
    _03_Drive\Drive_Timer.c                  0x00000000   Number         0  drive_timer.o ABSOLUTE
    _03_Drive\Drive_Touch.c                  0x00000000   Number         0  drive_touch.o ABSOLUTE
    _03_Drive\Drive_TouchKey.c               0x00000000   Number         0  drive_touchkey.o ABSOLUTE
    _03_Drive\\Drive_ADC.c                   0x00000000   Number         0  drive_adc.o ABSOLUTE
    _03_Drive\\Drive_ADF4351.c               0x00000000   Number         0  drive_adf4351.o ABSOLUTE
    _03_Drive\\Drive_ADL5336.c               0x00000000   Number         0  drive_adl5336.o ABSOLUTE
    _03_Drive\\Drive_ADS1256.c               0x00000000   Number         0  drive_ads1256.o ABSOLUTE
    _03_Drive\\Drive_Communication.c         0x00000000   Number         0  drive_communication.o ABSOLUTE
    _03_Drive\\Drive_DAC.c                   0x00000000   Number         0  drive_dac.o ABSOLUTE
    _03_Drive\\Drive_GPIO.c                  0x00000000   Number         0  drive_gpio.o ABSOLUTE
    _03_Drive\\Drive_Interrupt.c             0x00000000   Number         0  drive_interrupt.o ABSOLUTE
    _03_Drive\\Drive_PID.c                   0x00000000   Number         0  drive_pid.o ABSOLUTE
    _03_Drive\\Drive_Timer.c                 0x00000000   Number         0  drive_timer.o ABSOLUTE
    _03_Drive\\Drive_Touch.c                 0x00000000   Number         0  drive_touch.o ABSOLUTE
    _03_Drive\\Drive_TouchKey.c              0x00000000   Number         0  drive_touchkey.o ABSOLUTE
    _04_FWLib\STM32F40x_FWLib\src\misc.c     0x00000000   Number         0  misc.o ABSOLUTE
    _04_FWLib\STM32F40x_FWLib\src\stm32f4xx_adc.c 0x00000000   Number         0  stm32f4xx_adc.o ABSOLUTE
    _04_FWLib\STM32F40x_FWLib\src\stm32f4xx_can.c 0x00000000   Number         0  stm32f4xx_can.o ABSOLUTE
    _04_FWLib\STM32F40x_FWLib\src\stm32f4xx_crc.c 0x00000000   Number         0  stm32f4xx_crc.o ABSOLUTE
    _04_FWLib\STM32F40x_FWLib\src\stm32f4xx_dac.c 0x00000000   Number         0  stm32f4xx_dac.o ABSOLUTE
    _04_FWLib\STM32F40x_FWLib\src\stm32f4xx_dma.c 0x00000000   Number         0  stm32f4xx_dma.o ABSOLUTE
    _04_FWLib\STM32F40x_FWLib\src\stm32f4xx_exti.c 0x00000000   Number         0  stm32f4xx_exti.o ABSOLUTE
    _04_FWLib\STM32F40x_FWLib\src\stm32f4xx_flash.c 0x00000000   Number         0  stm32f4xx_flash.o ABSOLUTE
    _04_FWLib\STM32F40x_FWLib\src\stm32f4xx_fsmc.c 0x00000000   Number         0  stm32f4xx_fsmc.o ABSOLUTE
    _04_FWLib\STM32F40x_FWLib\src\stm32f4xx_gpio.c 0x00000000   Number         0  stm32f4xx_gpio.o ABSOLUTE
    _04_FWLib\STM32F40x_FWLib\src\stm32f4xx_i2c.c 0x00000000   Number         0  stm32f4xx_i2c.o ABSOLUTE
    _04_FWLib\STM32F40x_FWLib\src\stm32f4xx_rcc.c 0x00000000   Number         0  stm32f4xx_rcc.o ABSOLUTE
    _04_FWLib\STM32F40x_FWLib\src\stm32f4xx_spi.c 0x00000000   Number         0  stm32f4xx_spi.o ABSOLUTE
    _04_FWLib\STM32F40x_FWLib\src\stm32f4xx_syscfg.c 0x00000000   Number         0  stm32f4xx_syscfg.o ABSOLUTE
    _04_FWLib\STM32F40x_FWLib\src\stm32f4xx_tim.c 0x00000000   Number         0  stm32f4xx_tim.o ABSOLUTE
    _04_FWLib\STM32F40x_FWLib\src\stm32f4xx_usart.c 0x00000000   Number         0  stm32f4xx_usart.o ABSOLUTE
    _04_FWLib\\STM32F40x_FWLib\\src\\misc.c  0x00000000   Number         0  misc.o ABSOLUTE
    _04_FWLib\\STM32F40x_FWLib\\src\\stm32f4xx_adc.c 0x00000000   Number         0  stm32f4xx_adc.o ABSOLUTE
    _04_FWLib\\STM32F40x_FWLib\\src\\stm32f4xx_can.c 0x00000000   Number         0  stm32f4xx_can.o ABSOLUTE
    _04_FWLib\\STM32F40x_FWLib\\src\\stm32f4xx_crc.c 0x00000000   Number         0  stm32f4xx_crc.o ABSOLUTE
    _04_FWLib\\STM32F40x_FWLib\\src\\stm32f4xx_dac.c 0x00000000   Number         0  stm32f4xx_dac.o ABSOLUTE
    _04_FWLib\\STM32F40x_FWLib\\src\\stm32f4xx_dma.c 0x00000000   Number         0  stm32f4xx_dma.o ABSOLUTE
    _04_FWLib\\STM32F40x_FWLib\\src\\stm32f4xx_exti.c 0x00000000   Number         0  stm32f4xx_exti.o ABSOLUTE
    _04_FWLib\\STM32F40x_FWLib\\src\\stm32f4xx_flash.c 0x00000000   Number         0  stm32f4xx_flash.o ABSOLUTE
    _04_FWLib\\STM32F40x_FWLib\\src\\stm32f4xx_fsmc.c 0x00000000   Number         0  stm32f4xx_fsmc.o ABSOLUTE
    _04_FWLib\\STM32F40x_FWLib\\src\\stm32f4xx_gpio.c 0x00000000   Number         0  stm32f4xx_gpio.o ABSOLUTE
    _04_FWLib\\STM32F40x_FWLib\\src\\stm32f4xx_i2c.c 0x00000000   Number         0  stm32f4xx_i2c.o ABSOLUTE
    _04_FWLib\\STM32F40x_FWLib\\src\\stm32f4xx_rcc.c 0x00000000   Number         0  stm32f4xx_rcc.o ABSOLUTE
    _04_FWLib\\STM32F40x_FWLib\\src\\stm32f4xx_spi.c 0x00000000   Number         0  stm32f4xx_spi.o ABSOLUTE
    _04_FWLib\\STM32F40x_FWLib\\src\\stm32f4xx_syscfg.c 0x00000000   Number         0  stm32f4xx_syscfg.o ABSOLUTE
    _04_FWLib\\STM32F40x_FWLib\\src\\stm32f4xx_tim.c 0x00000000   Number         0  stm32f4xx_tim.o ABSOLUTE
    _04_FWLib\\STM32F40x_FWLib\\src\\stm32f4xx_usart.c 0x00000000   Number         0  stm32f4xx_usart.o ABSOLUTE
    _05_Os\Os_UI.c                           0x00000000   Number         0  os_ui.o ABSOLUTE
    _05_Os\Os_cpu.c                          0x00000000   Number         0  os_cpu.o ABSOLUTE
    _05_Os\Os_malloc.c                       0x00000000   Number         0  os_malloc.o ABSOLUTE
    _05_Os\\Os_UI.c                          0x00000000   Number         0  os_ui.o ABSOLUTE
    _05_Os\\Os_cpu.c                         0x00000000   Number         0  os_cpu.o ABSOLUTE
    _05_Os\\Os_malloc.c                      0x00000000   Number         0  os_malloc.o ABSOLUTE
    _05_Os\core.asm                          0x00000000   Number         0  core.o ABSOLUTE
    _06_System\\delay.c                      0x00000000   Number         0  delay.o ABSOLUTE
    _06_System\\sys.c                        0x00000000   Number         0  sys.o ABSOLUTE
    _06_System\\usart.c                      0x00000000   Number         0  usart.o ABSOLUTE
    _06_System\delay.c                       0x00000000   Number         0  delay.o ABSOLUTE
    _06_System\sys.c                         0x00000000   Number         0  sys.o ABSOLUTE
    _06_System\usart.c                       0x00000000   Number         0  usart.o ABSOLUTE
    _07_TFT_LCD\Character.c                  0x00000000   Number         0  character.o ABSOLUTE
    _07_TFT_LCD\TFT_LCD.c                    0x00000000   Number         0  tft_lcd.o ABSOLUTE
    _07_TFT_LCD\W25Q64.c                     0x00000000   Number         0  w25q64.o ABSOLUTE
    _07_TFT_LCD\\Character.c                 0x00000000   Number         0  character.o ABSOLUTE
    _07_TFT_LCD\\TFT_LCD.c                   0x00000000   Number         0  tft_lcd.o ABSOLUTE
    _07_TFT_LCD\\W25Q64.c                    0x00000000   Number         0  w25q64.o ABSOLUTE
    _07_TFT_LCD\\fontupd.c                   0x00000000   Number         0  fontupd.o ABSOLUTE
    _07_TFT_LCD\\spi.c                       0x00000000   Number         0  spi.o ABSOLUTE
    _07_TFT_LCD\\text.c                      0x00000000   Number         0  text.o ABSOLUTE
    _07_TFT_LCD\fonts.c                      0x00000000   Number         0  fonts.o ABSOLUTE
    _07_TFT_LCD\fontupd.c                    0x00000000   Number         0  fontupd.o ABSOLUTE
    _07_TFT_LCD\spi.c                        0x00000000   Number         0  spi.o ABSOLUTE
    _07_TFT_LCD\text.c                       0x00000000   Number         0  text.o ABSOLUTE
    dc.s                                     0x00000000   Number         0  dc.o ABSOLUTE
    main.c                                   0x00000000   Number         0  main.o ABSOLUTE
    main.c                                   0x00000000   Number         0  main.o ABSOLUTE
    RESET                                    0x08000000   Section      392  startup_stm32f40_41xxx.o(RESET)
    !!!main                                  0x08000188   Section        8  __main.o(!!!main)
    !!!scatter                               0x08000190   Section       52  __scatter.o(!!!scatter)
    !!handler_copy                           0x080001c4   Section       26  __scatter_copy.o(!!handler_copy)
    !!handler_zi                             0x080001e0   Section       28  __scatter_zi.o(!!handler_zi)
    .ARM.Collect$$_printf_percent$$00000000  0x080001fc   Section        0  _printf_percent.o(.ARM.Collect$$_printf_percent$$00000000)
    .ARM.Collect$$_printf_percent$$00000003  0x080001fc   Section        6  _printf_f.o(.ARM.Collect$$_printf_percent$$00000003)
    .ARM.Collect$$_printf_percent$$00000004  0x08000202   Section        6  _printf_e.o(.ARM.Collect$$_printf_percent$$00000004)
    .ARM.Collect$$_printf_percent$$00000005  0x08000208   Section        6  _printf_g.o(.ARM.Collect$$_printf_percent$$00000005)
    .ARM.Collect$$_printf_percent$$00000006  0x0800020e   Section        6  _printf_a.o(.ARM.Collect$$_printf_percent$$00000006)
    .ARM.Collect$$_printf_percent$$00000014  0x08000214   Section        6  _printf_s.o(.ARM.Collect$$_printf_percent$$00000014)
    .ARM.Collect$$_printf_percent$$00000017  0x0800021a   Section        4  _printf_percent_end.o(.ARM.Collect$$_printf_percent$$00000017)
    .ARM.Collect$$libinit$$00000000          0x0800021e   Section        2  libinit.o(.ARM.Collect$$libinit$$00000000)
    .ARM.Collect$$libinit$$00000001          0x08000220   Section        4  libinit2.o(.ARM.Collect$$libinit$$00000001)
    .ARM.Collect$$libinit$$00000004          0x08000224   Section        0  libinit2.o(.ARM.Collect$$libinit$$00000004)
    .ARM.Collect$$libinit$$0000000A          0x08000224   Section        0  libinit2.o(.ARM.Collect$$libinit$$0000000A)
    .ARM.Collect$$libinit$$0000000C          0x08000224   Section        0  libinit2.o(.ARM.Collect$$libinit$$0000000C)
    .ARM.Collect$$libinit$$0000000E          0x08000224   Section        0  libinit2.o(.ARM.Collect$$libinit$$0000000E)
    .ARM.Collect$$libinit$$0000000F          0x08000224   Section        6  libinit2.o(.ARM.Collect$$libinit$$0000000F)
    .ARM.Collect$$libinit$$00000011          0x0800022a   Section        0  libinit2.o(.ARM.Collect$$libinit$$00000011)
    .ARM.Collect$$libinit$$00000012          0x0800022a   Section       12  libinit2.o(.ARM.Collect$$libinit$$00000012)
    .ARM.Collect$$libinit$$00000013          0x08000236   Section        0  libinit2.o(.ARM.Collect$$libinit$$00000013)
    .ARM.Collect$$libinit$$00000015          0x08000236   Section        0  libinit2.o(.ARM.Collect$$libinit$$00000015)
    .ARM.Collect$$libinit$$00000016          0x08000236   Section       10  libinit2.o(.ARM.Collect$$libinit$$00000016)
    .ARM.Collect$$libinit$$00000017          0x08000240   Section        0  libinit2.o(.ARM.Collect$$libinit$$00000017)
    .ARM.Collect$$libinit$$00000019          0x08000240   Section        0  libinit2.o(.ARM.Collect$$libinit$$00000019)
    .ARM.Collect$$libinit$$0000001B          0x08000240   Section        0  libinit2.o(.ARM.Collect$$libinit$$0000001B)
    .ARM.Collect$$libinit$$0000001D          0x08000240   Section        0  libinit2.o(.ARM.Collect$$libinit$$0000001D)
    .ARM.Collect$$libinit$$0000001F          0x08000240   Section        0  libinit2.o(.ARM.Collect$$libinit$$0000001F)
    .ARM.Collect$$libinit$$00000021          0x08000240   Section        0  libinit2.o(.ARM.Collect$$libinit$$00000021)
    .ARM.Collect$$libinit$$00000023          0x08000240   Section        0  libinit2.o(.ARM.Collect$$libinit$$00000023)
    .ARM.Collect$$libinit$$00000025          0x08000240   Section        0  libinit2.o(.ARM.Collect$$libinit$$00000025)
    .ARM.Collect$$libinit$$0000002C          0x08000240   Section        0  libinit2.o(.ARM.Collect$$libinit$$0000002C)
    .ARM.Collect$$libinit$$0000002E          0x08000240   Section        0  libinit2.o(.ARM.Collect$$libinit$$0000002E)
    .ARM.Collect$$libinit$$00000030          0x08000240   Section        0  libinit2.o(.ARM.Collect$$libinit$$00000030)
    .ARM.Collect$$libinit$$00000032          0x08000240   Section        0  libinit2.o(.ARM.Collect$$libinit$$00000032)
    .ARM.Collect$$libinit$$00000033          0x08000240   Section        2  libinit2.o(.ARM.Collect$$libinit$$00000033)
    .ARM.Collect$$libshutdown$$00000000      0x08000242   Section        2  libshutdown.o(.ARM.Collect$$libshutdown$$00000000)
    .ARM.Collect$$libshutdown$$00000002      0x08000244   Section        0  libshutdown2.o(.ARM.Collect$$libshutdown$$00000002)
    .ARM.Collect$$libshutdown$$00000004      0x08000244   Section        0  libshutdown2.o(.ARM.Collect$$libshutdown$$00000004)
    .ARM.Collect$$libshutdown$$00000007      0x08000244   Section        0  libshutdown2.o(.ARM.Collect$$libshutdown$$00000007)
    .ARM.Collect$$libshutdown$$0000000A      0x08000244   Section        0  libshutdown2.o(.ARM.Collect$$libshutdown$$0000000A)
    .ARM.Collect$$libshutdown$$0000000C      0x08000244   Section        0  libshutdown2.o(.ARM.Collect$$libshutdown$$0000000C)
    .ARM.Collect$$libshutdown$$0000000F      0x08000244   Section        0  libshutdown2.o(.ARM.Collect$$libshutdown$$0000000F)
    .ARM.Collect$$libshutdown$$00000010      0x08000244   Section        2  libshutdown2.o(.ARM.Collect$$libshutdown$$00000010)
    .ARM.Collect$$rtentry$$00000000          0x08000246   Section        0  __rtentry.o(.ARM.Collect$$rtentry$$00000000)
    .ARM.Collect$$rtentry$$00000002          0x08000246   Section        0  __rtentry2.o(.ARM.Collect$$rtentry$$00000002)
    .ARM.Collect$$rtentry$$00000004          0x08000246   Section        6  __rtentry4.o(.ARM.Collect$$rtentry$$00000004)
    .ARM.Collect$$rtentry$$00000009          0x0800024c   Section        0  __rtentry2.o(.ARM.Collect$$rtentry$$00000009)
    .ARM.Collect$$rtentry$$0000000A          0x0800024c   Section        4  __rtentry2.o(.ARM.Collect$$rtentry$$0000000A)
    .ARM.Collect$$rtentry$$0000000C          0x08000250   Section        0  __rtentry2.o(.ARM.Collect$$rtentry$$0000000C)
    .ARM.Collect$$rtentry$$0000000D          0x08000250   Section        8  __rtentry2.o(.ARM.Collect$$rtentry$$0000000D)
    .ARM.Collect$$rtexit$$00000000           0x08000258   Section        2  rtexit.o(.ARM.Collect$$rtexit$$00000000)
    .ARM.Collect$$rtexit$$00000002           0x0800025a   Section        0  rtexit2.o(.ARM.Collect$$rtexit$$00000002)
    .ARM.Collect$$rtexit$$00000003           0x0800025a   Section        4  rtexit2.o(.ARM.Collect$$rtexit$$00000003)
    .ARM.Collect$$rtexit$$00000004           0x0800025e   Section        6  rtexit2.o(.ARM.Collect$$rtexit$$00000004)
    .text                                    0x08000264   Section       60  startup_stm32f40_41xxx.o(.text)
    $v0                                      0x08000264   Number         0  startup_stm32f40_41xxx.o(.text)
    .text                                    0x080002a0   Section        2  use_no_semi_2.o(.text)
    .text                                    0x080002a4   Section        0  noretval__2printf.o(.text)
    .text                                    0x080002bc   Section        0  noretval__2sprintf.o(.text)
    .text                                    0x080002e4   Section        0  _printf_pad.o(.text)
    .text                                    0x08000332   Section        0  _printf_str.o(.text)
    .text                                    0x08000384   Section        0  __printf_flags_ss_wp.o(.text)
    .text                                    0x0800050c   Section        0  strstr.o(.text)
    .text                                    0x08000530   Section      100  rt_memcpy_w.o(.text)
    .text                                    0x08000594   Section       78  rt_memclr_w.o(.text)
    .text                                    0x080005e2   Section        0  heapauxi.o(.text)
    .text                                    0x080005e8   Section        2  use_no_semi.o(.text)
    .text                                    0x080005ea   Section        0  _rserrno.o(.text)
    .text                                    0x08000600   Section        0  _printf_fp_dec.o(.text)
    _fp_digits                               0x08000603   Thumb Code   432  _printf_fp_dec.o(.text)
    .text                                    0x08000a20   Section        0  _printf_fp_hex.o(.text)
    .text                                    0x08000d1c   Section        0  _printf_char_common.o(.text)
    _printf_input_char                       0x08000d1d   Thumb Code    10  _printf_char_common.o(.text)
    .text                                    0x08000d4c   Section        0  _sputc.o(.text)
    .text                                    0x08000d56   Section        0  _printf_char.o(.text)
    .text                                    0x08000d84   Section        0  _printf_char_file.o(.text)
    .text                                    0x08000da8   Section        0  strtod.o(.text)
    _local_sscanf                            0x08000da9   Thumb Code    60  strtod.o(.text)
    .text                                    0x08000e4c   Section        8  rt_locale_intlibspace.o(.text)
    .text                                    0x08000e54   Section        8  rt_errno_addr_intlibspace.o(.text)
    .text                                    0x08000e5c   Section      138  lludiv10.o(.text)
    .text                                    0x08000ee6   Section        0  isspace.o(.text)
    .text                                    0x08000ef8   Section        0  _printf_fp_infnan.o(.text)
    .text                                    0x08000f78   Section        0  _sgetc.o(.text)
    .text                                    0x08000fb8   Section        0  bigflt0.o(.text)
    .text                                    0x0800109c   Section        0  ferror.o(.text)
    .text                                    0x080010a4   Section        8  libspace.o(.text)
    .text                                    0x080010ac   Section       74  sys_stackheap_outer.o(.text)
    .text                                    0x080010f8   Section       16  rt_ctype_table.o(.text)
    .text                                    0x08001108   Section        0  scanf_fp.o(.text)
    _fp_value                                0x08001109   Thumb Code   588  scanf_fp.o(.text)
    .text                                    0x08001600   Section        0  exit.o(.text)
    .text                                    0x08001614   Section      128  strcmpv7m.o(.text)
    .text                                    0x08001694   Section        0  scanf_hexfp.o(.text)
    .text                                    0x080019b4   Section        0  scanf_infnan.o(.text)
    .text                                    0x08001ae8   Section       38  llshl.o(.text)
    .text                                    0x08001b0e   Section        0  _chval.o(.text)
    CL$$btod_d2e                             0x08001b2a   Section       62  btod.o(CL$$btod_d2e)
    CL$$btod_d2e_denorm_low                  0x08001b68   Section       70  btod.o(CL$$btod_d2e_denorm_low)
    CL$$btod_d2e_norm_op1                    0x08001bae   Section       96  btod.o(CL$$btod_d2e_norm_op1)
    CL$$btod_div_common                      0x08001c0e   Section      824  btod.o(CL$$btod_div_common)
    CL$$btod_e2d                             0x08001f48   Section      132  btod.o(CL$$btod_e2d)
    CL$$btod_e2e                             0x08001fcc   Section      220  btod.o(CL$$btod_e2e)
    CL$$btod_ediv                            0x080020a8   Section       42  btod.o(CL$$btod_ediv)
    CL$$btod_edivd                           0x080020d2   Section       42  btod.o(CL$$btod_edivd)
    CL$$btod_emul                            0x080020fc   Section       42  btod.o(CL$$btod_emul)
    CL$$btod_emuld                           0x08002126   Section       42  btod.o(CL$$btod_emuld)
    CL$$btod_mult_common                     0x08002150   Section      580  btod.o(CL$$btod_mult_common)
    CODE                                     0x08002394   Section      144  core.o(CODE)
    $v0                                      0x08002394   Number         0  core.o(CODE)
    i.ADC1_Init                              0x08002424   Section        0  drive_adc.o(i.ADC1_Init)
    i.ADC_Cmd                                0x080024a4   Section        0  stm32f4xx_adc.o(i.ADC_Cmd)
    i.ADC_CommonInit                         0x080024bc   Section        0  stm32f4xx_adc.o(i.ADC_CommonInit)
    i.ADC_GetConversionValue                 0x080024ec   Section        0  stm32f4xx_adc.o(i.ADC_GetConversionValue)
    i.ADC_GetFlagStatus                      0x080024f4   Section        0  stm32f4xx_adc.o(i.ADC_GetFlagStatus)
    i.ADC_Init                               0x08002508   Section        0  stm32f4xx_adc.o(i.ADC_Init)
    i.ADC_RegularChannelConfig               0x0800255c   Section        0  stm32f4xx_adc.o(i.ADC_RegularChannelConfig)
    i.ADC_Result_Get                         0x08002614   Section        0  drive_adc.o(i.ADC_Result_Get)
    i.ADC_SoftwareStartConv                  0x08002664   Section        0  stm32f4xx_adc.o(i.ADC_SoftwareStartConv)
    i.ADF4351Init                            0x0800266e   Section        0  drive_adf4351.o(i.ADF4351Init)
    i.ADF4351WriteFreq                       0x08002738   Section        0  drive_adf4351.o(i.ADF4351WriteFreq)
    i.ADF4351_Sweep_main                     0x0800293c   Section        0  app_adf4351_sweep.o(i.ADF4351_Sweep_main)
    i.ADF4351_main                           0x08002a20   Section        0  app_adf4351.o(i.ADF4351_main)
    i.ADF_Output_GPIOInit                    0x08002a58   Section        0  drive_adf4351.o(i.ADF_Output_GPIOInit)
    i.ADS1256ReadData                        0x08002a88   Section        0  drive_ads1256.o(i.ADS1256ReadData)
    i.ADS1256WREG                            0x08002b00   Section        0  drive_ads1256.o(i.ADS1256WREG)
    i.ADS_Read_AD                            0x08002b50   Section        0  drive_touch.o(i.ADS_Read_AD)
    ADS_Read_AD                              0x08002b51   Thumb Code   134  drive_touch.o(i.ADS_Read_AD)
    i.ADS_Read_XY                            0x08002be8   Section        0  drive_touch.o(i.ADS_Read_XY)
    ADS_Read_XY                              0x08002be9   Thumb Code   124  drive_touch.o(i.ADS_Read_XY)
    i.ADS_Write_Byte                         0x08002c64   Section        0  drive_touch.o(i.ADS_Write_Byte)
    ADS_Write_Byte                           0x08002c65   Thumb Code    76  drive_touch.o(i.ADS_Write_Byte)
    i.AF_Multi_Measuring                     0x08002cb8   Section        0  app_freqana.o(i.AF_Multi_Measuring)
    i.BusFault_Handler                       0x08003454   Section        0  stm32f4xx_it.o(i.BusFault_Handler)
    i.Clear_Show                             0x08003458   Section        0  drive_touchkey.o(i.Clear_Show)
    i.DAC_Cmd                                0x080034a8   Section        0  stm32f4xx_dac.o(i.DAC_Cmd)
    i.DAC_Init                               0x080034d0   Section        0  stm32f4xx_dac.o(i.DAC_Init)
    i.DAC_SetChannel2Data                    0x08003504   Section        0  stm32f4xx_dac.o(i.DAC_SetChannel2Data)
    i.Dac2_Init                              0x08003524   Section        0  drive_dac.o(i.Dac2_Init)
    i.Dac2_Set_Vol                           0x0800357c   Section        0  drive_dac.o(i.Dac2_Set_Vol)
    i.DebugMon_Handler                       0x0800358a   Section        0  stm32f4xx_it.o(i.DebugMon_Handler)
    i.Delay                                  0x0800358c   Section        0  drive_touch.o(i.Delay)
    Delay                                    0x0800358d   Thumb Code    16  drive_touch.o(i.Delay)
    i.Draw_Graph                             0x0800359c   Section        0  os_ui.o(i.Draw_Graph)
    i.Draw_Grid                              0x080038e4   Section        0  os_ui.o(i.Draw_Grid)
    i.ESP8266_Client_Connect_Server          0x08003cc4   Section        0  drive_communication.o(i.ESP8266_Client_Connect_Server)
    i.EXTI0_IRQHandler                       0x08003d78   Section        0  drive_interrupt.o(i.EXTI0_IRQHandler)
    i.EXTI15_10_IRQHandler                   0x08003d82   Section        0  drive_interrupt.o(i.EXTI15_10_IRQHandler)
    i.EXTI1_IRQHandler                       0x08003d98   Section        0  drive_interrupt.o(i.EXTI1_IRQHandler)
    i.EXTI2_IRQHandler                       0x08003daa   Section        0  drive_interrupt.o(i.EXTI2_IRQHandler)
    i.EXTI3_IRQHandler                       0x08003dbc   Section        0  drive_interrupt.o(i.EXTI3_IRQHandler)
    i.EXTI4_IRQHandler                       0x08003dce   Section        0  drive_interrupt.o(i.EXTI4_IRQHandler)
    i.EXTI9_5_IRQHandler                     0x08003de0   Section        0  drive_interrupt.o(i.EXTI9_5_IRQHandler)
    i.EXTI_ClearITPendingBit                 0x08003df4   Section        0  stm32f4xx_exti.o(i.EXTI_ClearITPendingBit)
    i.EXTI_GetITStatus                       0x08003e00   Section        0  stm32f4xx_exti.o(i.EXTI_GetITStatus)
    i.FSMC_NORSRAMCmd                        0x08003e18   Section        0  stm32f4xx_fsmc.o(i.FSMC_NORSRAMCmd)
    i.FSMC_NORSRAMInit                       0x08003e4c   Section        0  stm32f4xx_fsmc.o(i.FSMC_NORSRAMInit)
    i.FreqAna_main                           0x08003f34   Section        0  app_freqana.o(i.FreqAna_main)
    i.GPIO_Configuration                     0x08003fe8   Section        0  drive_touch.o(i.GPIO_Configuration)
    GPIO_Configuration                       0x08003fe9   Thumb Code   142  drive_touch.o(i.GPIO_Configuration)
    i.GPIO_Init                              0x0800408c   Section        0  stm32f4xx_gpio.o(i.GPIO_Init)
    i.GPIO_Key_Init                          0x0800411c   Section        0  drive_gpio.o(i.GPIO_Key_Init)
    i.GPIO_PinAFConfig                       0x0800415c   Section        0  stm32f4xx_gpio.o(i.GPIO_PinAFConfig)
    i.GPIO_ResetBits                         0x080041a2   Section        0  stm32f4xx_gpio.o(i.GPIO_ResetBits)
    i.GPIO_SetBits                           0x080041a6   Section        0  stm32f4xx_gpio.o(i.GPIO_SetBits)
    i.Get_Val                                0x080041ac   Section        0  drive_ads1256.o(i.Get_Val)
    i.GridData_Init                          0x08004214   Section        0  app_freqana.o(i.GridData_Init)
    i.HardFault_Handler                      0x08004288   Section        0  stm32f4xx_it.o(i.HardFault_Handler)
    i.Key_Now_Get                            0x0800428c   Section        0  app_key.o(i.Key_Now_Get)
    i.Key_main                               0x08004340   Section        0  app_key.o(i.Key_main)
    i.LCD_Clear                              0x08004510   Section        0  tft_lcd.o(i.LCD_Clear)
    i.LCD_CtrlLinesConfig                    0x0800453c   Section        0  tft_lcd.o(i.LCD_CtrlLinesConfig)
    i.LCD_DrawRectS                          0x08004690   Section        0  tft_lcd.o(i.LCD_DrawRectS)
    i.LCD_DrawuniLine                        0x080046d0   Section        0  tft_lcd.o(i.LCD_DrawuniLine)
    i.LCD_FSMCConfig                         0x080047ee   Section        0  tft_lcd.o(i.LCD_FSMCConfig)
    i.LCD_REG_Select                         0x0800484c   Section        0  tft_lcd.o(i.LCD_REG_Select)
    i.LCD_SetCursor                          0x08004854   Section        0  tft_lcd.o(i.LCD_SetCursor)
    i.LCD_SetDisplayWindow                   0x08004898   Section        0  tft_lcd.o(i.LCD_SetDisplayWindow)
    i.LCD_WriteRAM                           0x080048e4   Section        0  tft_lcd.o(i.LCD_WriteRAM)
    i.LCD_WriteRAM_Prepare                   0x080048ec   Section        0  tft_lcd.o(i.LCD_WriteRAM_Prepare)
    i.LED_Control                            0x080048f8   Section        0  app_led.o(i.LED_Control)
    i.LED_Init                               0x0800499c   Section        0  drive_gpio.o(i.LED_Init)
    i.LED_main                               0x080049ec   Section        0  app_led.o(i.LED_main)
    i.MemManage_Handler                      0x08004a18   Section        0  stm32f4xx_it.o(i.MemManage_Handler)
    i.NMI_Handler                            0x08004a1c   Section        0  stm32f4xx_it.o(i.NMI_Handler)
    i.NVIC_Init                              0x08004a20   Section        0  misc.o(i.NVIC_Init)
    i.OSDelPrioRdy                           0x08004a98   Section        0  os_cpu.o(i.OSDelPrioRdy)
    i.OSGetHighRdy                           0x08004aac   Section        0  os_cpu.o(i.OSGetHighRdy)
    i.OSSetPrioRdy                           0x08004ad4   Section        0  os_cpu.o(i.OSSetPrioRdy)
    i.OSTaskRecovery                         0x08004ae8   Section        0  os_cpu.o(i.OSTaskRecovery)
    i.OSTaskSuspend                          0x08004b5c   Section        0  os_cpu.o(i.OSTaskSuspend)
    i.OSTimeDly                              0x08004bc4   Section        0  os_cpu.o(i.OSTimeDly)
    i.OS_Char_Show                           0x08004c00   Section        0  os_ui.o(i.OS_Char_Show)
    i.OS_Font_Show                           0x08004d20   Section        0  os_ui.o(i.OS_Font_Show)
    i.OS_HzMat_Get                           0x08004de8   Section        0  os_ui.o(i.OS_HzMat_Get)
    i.OS_IDLE_Task                           0x08004ec8   Section        0  os_cpu.o(i.OS_IDLE_Task)
    i.OS_Init                                0x08004ed0   Section        0  main.o(i.OS_Init)
    i.OS_LCD_Clear                           0x08004f00   Section        0  os_ui.o(i.OS_LCD_Clear)
    i.OS_LCD_Init                            0x08004f10   Section        0  os_ui.o(i.OS_LCD_Init)
    i.OS_Line_Draw                           0x08004f64   Section        0  os_ui.o(i.OS_Line_Draw)
    i.OS_Num_Show                            0x0800502c   Section        0  os_ui.o(i.OS_Num_Show)
    i.OS_Point_Draw                          0x0800508c   Section        0  os_ui.o(i.OS_Point_Draw)
    i.OS_Rect_Draw                           0x080050ac   Section        0  os_ui.o(i.OS_Rect_Draw)
    i.OS_Sched                               0x08005144   Section        0  os_cpu.o(i.OS_Sched)
    i.OS_SchedLock                           0x0800519c   Section        0  os_cpu.o(i.OS_SchedLock)
    i.OS_SchedUnlock                         0x080051b8   Section        0  os_cpu.o(i.OS_SchedUnlock)
    i.OS_Start                               0x080051d4   Section        0  os_cpu.o(i.OS_Start)
    i.OS_String_Show                         0x0800523c   Section        0  os_ui.o(i.OS_String_Show)
    i.PID_Init                               0x080052b8   Section        0  app_switch.o(i.PID_Init)
    i.PutPixel                               0x0800531c   Section        0  tft_lcd.o(i.PutPixel)
    i.RCC_AHB1PeriphClockCmd                 0x0800533c   Section        0  stm32f4xx_rcc.o(i.RCC_AHB1PeriphClockCmd)
    i.RCC_AHB3PeriphClockCmd                 0x0800535c   Section        0  stm32f4xx_rcc.o(i.RCC_AHB3PeriphClockCmd)
    i.RCC_APB1PeriphClockCmd                 0x0800537c   Section        0  stm32f4xx_rcc.o(i.RCC_APB1PeriphClockCmd)
    i.RCC_APB2PeriphClockCmd                 0x0800539c   Section        0  stm32f4xx_rcc.o(i.RCC_APB2PeriphClockCmd)
    i.RCC_APB2PeriphResetCmd                 0x080053bc   Section        0  stm32f4xx_rcc.o(i.RCC_APB2PeriphResetCmd)
    i.RCC_GetClocksFreq                      0x080053dc   Section        0  stm32f4xx_rcc.o(i.RCC_GetClocksFreq)
    i.SPI1_Init                              0x080054c4   Section        0  spi.o(i.SPI1_Init)
    i.SPI1_ReadWriteByte                     0x08005598   Section        0  spi.o(i.SPI1_ReadWriteByte)
    i.SPI1_SetSpeed                          0x080055d0   Section        0  spi.o(i.SPI1_SetSpeed)
    i.SPI_Cmd                                0x080055f8   Section        0  stm32f4xx_spi.o(i.SPI_Cmd)
    i.SPI_I2S_GetFlagStatus                  0x08005610   Section        0  stm32f4xx_spi.o(i.SPI_I2S_GetFlagStatus)
    i.SPI_I2S_ReceiveData                    0x08005622   Section        0  stm32f4xx_spi.o(i.SPI_I2S_ReceiveData)
    i.SPI_I2S_SendData                       0x08005628   Section        0  stm32f4xx_spi.o(i.SPI_I2S_SendData)
    i.SPI_Init                               0x0800562c   Section        0  stm32f4xx_spi.o(i.SPI_Init)
    i.SPI_ReadByte                           0x08005668   Section        0  drive_ads1256.o(i.SPI_ReadByte)
    i.SPI_WriteByte                          0x080056b0   Section        0  drive_ads1256.o(i.SPI_WriteByte)
    i.SVC_Handler                            0x08005704   Section        0  stm32f4xx_it.o(i.SVC_Handler)
    i.SetSysClock                            0x08005708   Section        0  system_stm32f4xx.o(i.SetSysClock)
    SetSysClock                              0x08005709   Thumb Code   220  system_stm32f4xx.o(i.SetSysClock)
    i.Show_Label                             0x080057f4   Section        0  os_ui.o(i.Show_Label)
    i.Start_Meum                             0x08005b3c   Section        0  app_adf4351.o(i.Start_Meum)
    i.Switch_main                            0x08005e40   Section        0  app_switch.o(i.Switch_main)
    i.SysTick_CLKSourceConfig                0x08005f54   Section        0  misc.o(i.SysTick_CLKSourceConfig)
    i.SysTick_Handler                        0x08005f7c   Section        0  os_cpu.o(i.SysTick_Handler)
    i.SystemInit                             0x08006000   Section        0  system_stm32f4xx.o(i.SystemInit)
    i.System_init                            0x08006068   Section        0  os_cpu.o(i.System_init)
    i.TFT_LCD_Init                           0x080060c4   Section        0  tft_lcd.o(i.TFT_LCD_Init)
    i.TIM1_BRK_TIM9_IRQHandler               0x080062b4   Section        0  drive_interrupt.o(i.TIM1_BRK_TIM9_IRQHandler)
    i.TIM1_TRG_COM_TIM11_IRQHandler          0x080062d0   Section        0  drive_interrupt.o(i.TIM1_TRG_COM_TIM11_IRQHandler)
    i.TIM1_UP_TIM10_IRQHandler               0x080062ec   Section        0  drive_interrupt.o(i.TIM1_UP_TIM10_IRQHandler)
    i.TIM2_IRQHandler                        0x08006308   Section        0  drive_interrupt.o(i.TIM2_IRQHandler)
    i.TIM3_IRQHandler                        0x08006320   Section        0  drive_interrupt.o(i.TIM3_IRQHandler)
    i.TIM4_IRQHandler                        0x0800633c   Section        0  drive_interrupt.o(i.TIM4_IRQHandler)
    i.TIM5_IRQHandler                        0x08006364   Section        0  drive_interrupt.o(i.TIM5_IRQHandler)
    i.TIM6_DAC_IRQHandler                    0x08006394   Section        0  drive_interrupt.o(i.TIM6_DAC_IRQHandler)
    i.TIM7_IRQHandler                        0x080063b0   Section        0  drive_interrupt.o(i.TIM7_IRQHandler)
    i.TIM8_BRK_TIM12_IRQHandler              0x080063cc   Section        0  drive_interrupt.o(i.TIM8_BRK_TIM12_IRQHandler)
    i.TIM8_TRG_COM_TIM14_IRQHandler          0x080063e8   Section        0  drive_interrupt.o(i.TIM8_TRG_COM_TIM14_IRQHandler)
    i.TIM8_UP_TIM13_IRQHandler               0x08006404   Section        0  drive_interrupt.o(i.TIM8_UP_TIM13_IRQHandler)
    i.TIM_ClearITPendingBit                  0x08006420   Section        0  stm32f4xx_tim.o(i.TIM_ClearITPendingBit)
    i.TIM_GetITStatus                        0x08006426   Section        0  stm32f4xx_tim.o(i.TIM_GetITStatus)
    i.Task_Create                            0x08006448   Section        0  os_cpu.o(i.Task_Create)
    i.Task_End                               0x08006638   Section        0  os_cpu.o(i.Task_End)
    i.TouchKey_Draw                          0x0800663c   Section        0  drive_touchkey.o(i.TouchKey_Draw)
    i.TouchKey_Scan                          0x08006920   Section        0  drive_touchkey.o(i.TouchKey_Scan)
    i.TouchRead                              0x08006e80   Section        0  drive_touch.o(i.TouchRead)
    i.Touch_Clear                            0x08006f2c   Section        0  app_touch.o(i.Touch_Clear)
    i.Touch_Handle                           0x08006f40   Section        0  app_adf4351.o(i.Touch_Handle)
    i.Touch_Init                             0x080073e6   Section        0  drive_touch.o(i.Touch_Init)
    i.Touch_Judge                            0x080073f0   Section        0  app_touch.o(i.Touch_Judge)
    i.Touch_main                             0x08007450   Section        0  app_touch.o(i.Touch_main)
    i.USART1_IRQHandler                      0x080074e0   Section        0  usart.o(i.USART1_IRQHandler)
    i.USART_Cmd                              0x080075b8   Section        0  stm32f4xx_usart.o(i.USART_Cmd)
    i.USART_GetFlagStatus                    0x080075d0   Section        0  stm32f4xx_usart.o(i.USART_GetFlagStatus)
    i.USART_GetITStatus                      0x080075ea   Section        0  stm32f4xx_usart.o(i.USART_GetITStatus)
    i.USART_ITConfig                         0x0800763e   Section        0  stm32f4xx_usart.o(i.USART_ITConfig)
    i.USART_Init                             0x08007688   Section        0  stm32f4xx_usart.o(i.USART_Init)
    i.USART_ReceiveData                      0x0800775c   Section        0  stm32f4xx_usart.o(i.USART_ReceiveData)
    i.USART_SendData                         0x08007766   Section        0  stm32f4xx_usart.o(i.USART_SendData)
    i.UsageFault_Handler                     0x0800776e   Section        0  stm32f4xx_it.o(i.UsageFault_Handler)
    i.W25Q64_Init                            0x08007774   Section        0  w25q64.o(i.W25Q64_Init)
    i.W25Q64_Read                            0x080077ec   Section        0  w25q64.o(i.W25Q64_Read)
    i.W25Q64_ReadID                          0x08007844   Section        0  w25q64.o(i.W25Q64_ReadID)
    i.WriteOneRegToADF4351                   0x08007890   Section        0  drive_adf4351.o(i.WriteOneRegToADF4351)
    i.WriteToADF4351                         0x080078bc   Section        0  drive_adf4351.o(i.WriteToADF4351)
    i.__ARM_fpclassify                       0x08007974   Section        0  fpclassify.o(i.__ARM_fpclassify)
    i.__ARM_fpclassifyf                      0x080079a4   Section        0  fpclassifyf.o(i.__ARM_fpclassifyf)
    i.__hardfp___mathlib_tofloat             0x080079d0   Section        0  narrow.o(i.__hardfp___mathlib_tofloat)
    i.__hardfp_atof                          0x08007ac8   Section        0  atof.o(i.__hardfp_atof)
    i.__hardfp_ldexp                         0x08007b00   Section        0  ldexp.o(i.__hardfp_ldexp)
    i.__hardfp_log10f                        0x08007bd0   Section        0  log10f.o(i.__hardfp_log10f)
    i.__hardfp_powf                          0x08007d50   Section        0  powf.o(i.__hardfp_powf)
    i.__mathlib_dbl_overflow                 0x080083b8   Section        0  dunder.o(i.__mathlib_dbl_overflow)
    i.__mathlib_dbl_underflow                0x080083d8   Section        0  dunder.o(i.__mathlib_dbl_underflow)
    i.__mathlib_flt_divzero                  0x080083f8   Section        0  funder.o(i.__mathlib_flt_divzero)
    i.__mathlib_flt_infnan                   0x0800840c   Section        0  funder.o(i.__mathlib_flt_infnan)
    i.__mathlib_flt_infnan2                  0x08008412   Section        0  funder.o(i.__mathlib_flt_infnan2)
    i.__mathlib_flt_invalid                  0x08008418   Section        0  funder.o(i.__mathlib_flt_invalid)
    i.__mathlib_flt_overflow                 0x08008428   Section        0  funder.o(i.__mathlib_flt_overflow)
    i.__mathlib_flt_underflow                0x08008438   Section        0  funder.o(i.__mathlib_flt_underflow)
    i.__mathlib_narrow                       0x08008448   Section        0  narrow.o(i.__mathlib_narrow)
    i.__support_ldexp                        0x0800845a   Section        0  ldexp.o(i.__support_ldexp)
    i._is_digit                              0x0800846e   Section        0  __printf_wp.o(i._is_digit)
    i._sys_exit                              0x0800847c   Section        0  usart.o(i._sys_exit)
    i.atk_8266_check_cmd                     0x08008480   Section        0  usart.o(i.atk_8266_check_cmd)
    i.atk_8266_send_cmd                      0x080084b4   Section        0  usart.o(i.atk_8266_send_cmd)
    i.crc_16                                 0x08008514   Section        0  drive_communication.o(i.crc_16)
    crc_16                                   0x08008515   Thumb Code    58  drive_communication.o(i.crc_16)
    i.delay_ms                               0x08008550   Section        0  delay.o(i.delay_ms)
    i.delay_us                               0x08008594   Section        0  delay.o(i.delay_us)
    i.font_init                              0x080085f4   Section        0  fontupd.o(i.font_init)
    i.fputc                                  0x08008638   Section        0  usart.o(i.fputc)
    i.frexp                                  0x08008658   Section        0  frexp.o(i.frexp)
    i.main                                   0x080086e4   Section        0  main.o(i.main)
    i.pid_calc                               0x08008778   Section        0  drive_pid.o(i.pid_calc)
    i.pid_init                               0x08008810   Section        0  drive_pid.o(i.pid_init)
    i.pid_reset                              0x080088c8   Section        0  drive_pid.o(i.pid_reset)
    i.sendData                               0x08008948   Section        0  drive_communication.o(i.sendData)
    i.uart_init                              0x080089d4   Section        0  usart.o(i.uart_init)
    i.usartSendData                          0x08008a80   Section        0  drive_communication.o(i.usartSendData)
    usartSendData                            0x08008a81   Thumb Code    42  drive_communication.o(i.usartSendData)
    locale$$code                             0x08008ab0   Section       44  lc_numeric_c.o(locale$$code)
    locale$$code                             0x08008adc   Section       44  lc_ctype_c.o(locale$$code)
    x$fpl$d2f                                0x08008b08   Section       98  d2f.o(x$fpl$d2f)
    $v0                                      0x08008b08   Number         0  d2f.o(x$fpl$d2f)
    x$fpl$dadd                               0x08008b6c   Section      336  daddsub_clz.o(x$fpl$dadd)
    $v0                                      0x08008b6c   Number         0  daddsub_clz.o(x$fpl$dadd)
    _dadd1                                   0x08008b7d   Thumb Code     0  daddsub_clz.o(x$fpl$dadd)
    x$fpl$dcheck1                            0x08008cbc   Section       16  dcheck1.o(x$fpl$dcheck1)
    $v0                                      0x08008cbc   Number         0  dcheck1.o(x$fpl$dcheck1)
    x$fpl$dcmpinf                            0x08008ccc   Section       24  dcmpi.o(x$fpl$dcmpinf)
    $v0                                      0x08008ccc   Number         0  dcmpi.o(x$fpl$dcmpinf)
    x$fpl$ddiv                               0x08008ce4   Section      688  ddiv.o(x$fpl$ddiv)
    $v0                                      0x08008ce4   Number         0  ddiv.o(x$fpl$ddiv)
    ddiv_entry                               0x08008ceb   Thumb Code     0  ddiv.o(x$fpl$ddiv)
    x$fpl$deqf                               0x08008f94   Section      120  deqf.o(x$fpl$deqf)
    $v0                                      0x08008f94   Number         0  deqf.o(x$fpl$deqf)
    x$fpl$dfixu                              0x0800900c   Section       90  dfixu.o(x$fpl$dfixu)
    $v0                                      0x0800900c   Number         0  dfixu.o(x$fpl$dfixu)
    x$fpl$dflt                               0x08009066   Section       46  dflt_clz.o(x$fpl$dflt)
    $v0                                      0x08009066   Number         0  dflt_clz.o(x$fpl$dflt)
    x$fpl$dfltu                              0x08009094   Section       38  dflt_clz.o(x$fpl$dfltu)
    $v0                                      0x08009094   Number         0  dflt_clz.o(x$fpl$dfltu)
    x$fpl$dleqf                              0x080090bc   Section      120  dleqf.o(x$fpl$dleqf)
    $v0                                      0x080090bc   Number         0  dleqf.o(x$fpl$dleqf)
    x$fpl$dmul                               0x08009134   Section      340  dmul.o(x$fpl$dmul)
    $v0                                      0x08009134   Number         0  dmul.o(x$fpl$dmul)
    x$fpl$dnaninf                            0x08009288   Section      156  dnaninf.o(x$fpl$dnaninf)
    $v0                                      0x08009288   Number         0  dnaninf.o(x$fpl$dnaninf)
    x$fpl$dretinf                            0x08009324   Section       12  dretinf.o(x$fpl$dretinf)
    $v0                                      0x08009324   Number         0  dretinf.o(x$fpl$dretinf)
    x$fpl$drleqf                             0x08009330   Section      108  drleqf.o(x$fpl$drleqf)
    $v0                                      0x08009330   Number         0  drleqf.o(x$fpl$drleqf)
    x$fpl$drsb                               0x0800939c   Section       22  daddsub_clz.o(x$fpl$drsb)
    $v0                                      0x0800939c   Number         0  daddsub_clz.o(x$fpl$drsb)
    x$fpl$dsub                               0x080093b4   Section      468  daddsub_clz.o(x$fpl$dsub)
    $v0                                      0x080093b4   Number         0  daddsub_clz.o(x$fpl$dsub)
    _dsub1                                   0x080093c5   Thumb Code     0  daddsub_clz.o(x$fpl$dsub)
    x$fpl$f2d                                0x08009588   Section       86  f2d.o(x$fpl$f2d)
    $v0                                      0x08009588   Number         0  f2d.o(x$fpl$f2d)
    x$fpl$fnaninf                            0x080095de   Section      140  fnaninf.o(x$fpl$fnaninf)
    $v0                                      0x080095de   Number         0  fnaninf.o(x$fpl$fnaninf)
    x$fpl$fpinit                             0x0800966a   Section       10  fpinit.o(x$fpl$fpinit)
    $v0                                      0x0800966a   Number         0  fpinit.o(x$fpl$fpinit)
    x$fpl$fretinf                            0x08009674   Section       10  fretinf.o(x$fpl$fretinf)
    $v0                                      0x08009674   Number         0  fretinf.o(x$fpl$fretinf)
    x$fpl$ieeestatus                         0x0800967e   Section        6  istatus.o(x$fpl$ieeestatus)
    $v0                                      0x0800967e   Number         0  istatus.o(x$fpl$ieeestatus)
    x$fpl$printf1                            0x08009684   Section        4  printf1.o(x$fpl$printf1)
    $v0                                      0x08009684   Number         0  printf1.o(x$fpl$printf1)
    x$fpl$printf2                            0x08009688   Section        4  printf2.o(x$fpl$printf2)
    $v0                                      0x08009688   Number         0  printf2.o(x$fpl$printf2)
    x$fpl$retnan                             0x0800968c   Section      100  retnan.o(x$fpl$retnan)
    $v0                                      0x0800968c   Number         0  retnan.o(x$fpl$retnan)
    x$fpl$scalbn                             0x080096f0   Section       92  scalbn.o(x$fpl$scalbn)
    $v0                                      0x080096f0   Number         0  scalbn.o(x$fpl$scalbn)
    x$fpl$scanf1                             0x0800974c   Section        4  scanf1.o(x$fpl$scanf1)
    $v0                                      0x0800974c   Number         0  scanf1.o(x$fpl$scanf1)
    x$fpl$scanf2                             0x08009750   Section        8  scanf2.o(x$fpl$scanf2)
    $v0                                      0x08009750   Number         0  scanf2.o(x$fpl$scanf2)
    x$fpl$trapveneer                         0x08009758   Section       48  trapv.o(x$fpl$trapveneer)
    $v0                                      0x08009758   Number         0  trapv.o(x$fpl$trapveneer)
    .constdata                               0x08009788   Section    41740  fonts.o(.constdata)
    x$fpl$usenofp                            0x08009788   Section        0  usenofp.o(x$fpl$usenofp)
    .constdata                               0x08013a94   Section       17  __printf_flags_ss_wp.o(.constdata)
    maptable                                 0x08013a94   Data          17  __printf_flags_ss_wp.o(.constdata)
    .constdata                               0x08013aa8   Section       64  log10f.o(.constdata)
    logahi                                   0x08013aa8   Data          32  log10f.o(.constdata)
    logalo                                   0x08013ac8   Data          32  log10f.o(.constdata)
    .constdata                               0x08013ae8   Section      320  powf.o(.constdata)
    table                                    0x08013ae8   Data         128  powf.o(.constdata)
    powersof2to1over16top                    0x08013b68   Data          64  powf.o(.constdata)
    powersof2to1over16bot                    0x08013ba8   Data          64  powf.o(.constdata)
    powersof2to1over16all                    0x08013be8   Data          64  powf.o(.constdata)
    .constdata                               0x08013c28   Section       38  _printf_fp_hex.o(.constdata)
    lc_hextab                                0x08013c28   Data          19  _printf_fp_hex.o(.constdata)
    uc_hextab                                0x08013c3b   Data          19  _printf_fp_hex.o(.constdata)
    .constdata                               0x08013c50   Section      148  bigflt0.o(.constdata)
    tenpwrs_x                                0x08013c50   Data          60  bigflt0.o(.constdata)
    tenpwrs_i                                0x08013c8c   Data          64  bigflt0.o(.constdata)
    c$$dinf                                  0x08013d04   Section        8  fpconst.o(c$$dinf)
    c$$dmax                                  0x08013d0c   Section        8  fpconst.o(c$$dmax)
    locale$$data                             0x08013d14   Section       28  lc_numeric_c.o(locale$$data)
    __lcnum_c_name                           0x08013d18   Data           2  lc_numeric_c.o(locale$$data)
    __lcnum_c_start                          0x08013d20   Data           0  lc_numeric_c.o(locale$$data)
    __lcnum_c_point                          0x08013d2c   Data           0  lc_numeric_c.o(locale$$data)
    __lcnum_c_thousands                      0x08013d2e   Data           0  lc_numeric_c.o(locale$$data)
    __lcnum_c_grouping                       0x08013d2f   Data           0  lc_numeric_c.o(locale$$data)
    locale$$data                             0x08013d30   Section      272  lc_ctype_c.o(locale$$data)
    __lcnum_c_end                            0x08013d30   Data           0  lc_numeric_c.o(locale$$data)
    __lcctype_c_name                         0x08013d34   Data           2  lc_ctype_c.o(locale$$data)
    __lcctype_c_start                        0x08013d3c   Data           0  lc_ctype_c.o(locale$$data)
    __lcctype_c_end                          0x08013e40   Data           0  lc_ctype_c.o(locale$$data)
    .ARM.__AT_0x10000000                     0x10000000   Section    61440  os_malloc.o(.ARM.__AT_0x10000000)
    .ARM.__AT_0x1000F000                     0x1000f000   Section     3840  os_malloc.o(.ARM.__AT_0x1000F000)
    .data                                    0x20000000   Section        4  app_touch.o(.data)
    LastX                                    0x20000000   Data           2  app_touch.o(.data)
    LastY                                    0x20000002   Data           2  app_touch.o(.data)
    .data                                    0x20000004   Section        1  app_led.o(.data)
    _led_cnt                                 0x20000004   Data           1  app_led.o(.data)
    .data                                    0x20000008   Section       56  app_adf4351.o(.data)
    .data                                    0x20000040   Section       16  app_adf4351_sweep.o(.data)
    Start_flag                               0x20000040   Data           2  app_adf4351_sweep.o(.data)
    Freqs                                    0x20000048   Data           8  app_adf4351_sweep.o(.data)
    .data                                    0x20000050   Section        4  app_switch.o(.data)
    Last_Vol                                 0x20000050   Data           4  app_switch.o(.data)
    .data                                    0x20000054   Section       30  os_cpu.o(.data)
    .data                                    0x20000072   Section        2  os_ui.o(.data)
    UeseState                                0x20000072   Data           1  os_ui.o(.data)
    frist                                    0x20000073   Data           1  os_ui.o(.data)
    .data                                    0x20000074   Section        9  usart.o(.data)
    i                                        0x2000007a   Data           2  usart.o(.data)
    rx_flag                                  0x2000007c   Data           1  usart.o(.data)
    .data                                    0x2000007e   Section       11  drive_touchkey.o(.data)
    End_flag                                 0x20000086   Data           1  drive_touchkey.o(.data)
    count                                    0x20000087   Data           1  drive_touchkey.o(.data)
    press_flag                               0x20000088   Data           1  drive_touchkey.o(.data)
    .data                                    0x2000008c   Section       32  fonts.o(.data)
    .data                                    0x200000ac   Section        8  tft_lcd.o(.data)
    LCD_Currentfonts                         0x200000ac   Data           4  tft_lcd.o(.data)
    .data                                    0x200000b4   Section        2  w25q64.o(.data)
    .data                                    0x200000b6   Section       16  stm32f4xx_rcc.o(.data)
    APBAHBPrescTable                         0x200000b6   Data          16  stm32f4xx_rcc.o(.data)
    .data                                    0x200000c8   Section       20  system_stm32f4xx.o(.data)
    .bss                                     0x200000dc   Section       14  app_touch.o(.bss)
    .bss                                     0x200000ea   Section       18  app_key.o(.bss)
    .bss                                     0x200000fc   Section       60  app_switch.o(.bss)
    .bss                                     0x20000138   Section    21876  app_freqana.o(.bss)
    .bss                                     0x200056ac   Section    84048  main.o(.bss)
    .bss                                     0x20019efc   Section     1152  os_cpu.o(.bss)
    .bss                                     0x2001a37c   Section      200  usart.o(.bss)
    .bss                                     0x2001a444   Section       40  drive_touchkey.o(.bss)
    databuf                                  0x2001a444   Data          40  drive_touchkey.o(.bss)
    .bss                                     0x2001a46c   Section     2097  drive_communication.o(.bss)
    .bss                                     0x2001ac9d   Section       33  fontupd.o(.bss)
    .bss                                     0x2001acc0   Section       96  libspace.o(.bss)
    HEAP                                     0x2001ad20   Section        0  startup_stm32f40_41xxx.o(HEAP)
    STACK                                    0x2001ad20   Section     8192  startup_stm32f40_41xxx.o(STACK)
    Heap_Mem                                 0x2001ad20   Data           0  startup_stm32f40_41xxx.o(HEAP)
    Stack_Mem                                0x2001ad20   Data        8192  startup_stm32f40_41xxx.o(STACK)
    __initial_sp                             0x2001cd20   Data           0  startup_stm32f40_41xxx.o(STACK)
    .ARM.__AT_0x68000000                     0x68000000   Section    983040  os_malloc.o(.ARM.__AT_0x68000000)
    .ARM.__AT_0x680F0000                     0x680f0000   Section    61440  os_malloc.o(.ARM.__AT_0x680F0000)

    Global Symbols

    Symbol Name                              Value     Ov Type        Size  Object(Section)

    BuildAttributes$$THM_ISAv4$E$P$D$K$B$S$7EM$VFPi3$EXTD16$VFPS$VFMA$PE$A:L22UL41UL21$X:L11$S22US41US21$IEEE1$IW$USESV6$~STKCKD$USESV7$~SHL$OTIME$ROPI$IEEEX$EBA8$UX$STANDARDLIB$REQ8$PRES8$EABIv2 0x00000000   Number         0  anon$$obj.o ABSOLUTE
    __ARM_use_no_argv                        0x00000000   Number         0  main.o ABSOLUTE
    _printf_flags                            0x00000000   Number         0  printf_stubs.o ABSOLUTE
    _printf_return_value                     0x00000000   Number         0  printf_stubs.o ABSOLUTE
    _printf_sizespec                         0x00000000   Number         0  printf_stubs.o ABSOLUTE
    _printf_widthprec                        0x00000000   Number         0  printf_stubs.o ABSOLUTE
    __ARM_exceptions_init                     - Undefined Weak Reference
    __alloca_initialize                       - Undefined Weak Reference
    __arm_preinit_                            - Undefined Weak Reference
    __cpp_initialize__aeabi_                  - Undefined Weak Reference
    __cxa_finalize                            - Undefined Weak Reference
    __sigvec_lookup                           - Undefined Weak Reference
    _atexit_init                              - Undefined Weak Reference
    _call_atexit_fns                          - Undefined Weak Reference
    _clock_init                               - Undefined Weak Reference
    _fp_trap_init                             - Undefined Weak Reference
    _fp_trap_shutdown                         - Undefined Weak Reference
    _get_lc_collate                           - Undefined Weak Reference
    _get_lc_monetary                          - Undefined Weak Reference
    _get_lc_time                              - Undefined Weak Reference
    _getenv_init                              - Undefined Weak Reference
    _handle_redirection                       - Undefined Weak Reference
    _init_alloc                               - Undefined Weak Reference
    _init_user_alloc                          - Undefined Weak Reference
    _initio                                   - Undefined Weak Reference
    _mutex_acquire                            - Undefined Weak Reference
    _mutex_release                            - Undefined Weak Reference
    _printf_mbtowc                            - Undefined Weak Reference
    _rand_init                                - Undefined Weak Reference
    _signal_finish                            - Undefined Weak Reference
    _signal_init                              - Undefined Weak Reference
    _terminate_alloc                          - Undefined Weak Reference
    _terminate_user_alloc                     - Undefined Weak Reference
    _terminateio                              - Undefined Weak Reference
    __Vectors_Size                           0x00000188   Number         0  startup_stm32f40_41xxx.o ABSOLUTE
    __Vectors                                0x08000000   Data           4  startup_stm32f40_41xxx.o(RESET)
    __Vectors_End                            0x08000188   Data           0  startup_stm32f40_41xxx.o(RESET)
    __main                                   0x08000189   Thumb Code     8  __main.o(!!!main)
    __scatterload                            0x08000191   Thumb Code     0  __scatter.o(!!!scatter)
    __scatterload_rt2                        0x08000191   Thumb Code    44  __scatter.o(!!!scatter)
    __scatterload_rt2_thumb_only             0x08000191   Thumb Code     0  __scatter.o(!!!scatter)
    __scatterload_null                       0x0800019f   Thumb Code     0  __scatter.o(!!!scatter)
    __scatterload_copy                       0x080001c5   Thumb Code    26  __scatter_copy.o(!!handler_copy)
    __scatterload_zeroinit                   0x080001e1   Thumb Code    28  __scatter_zi.o(!!handler_zi)
    _printf_f                                0x080001fd   Thumb Code     0  _printf_f.o(.ARM.Collect$$_printf_percent$$00000003)
    _printf_percent                          0x080001fd   Thumb Code     0  _printf_percent.o(.ARM.Collect$$_printf_percent$$00000000)
    _printf_e                                0x08000203   Thumb Code     0  _printf_e.o(.ARM.Collect$$_printf_percent$$00000004)
    _printf_g                                0x08000209   Thumb Code     0  _printf_g.o(.ARM.Collect$$_printf_percent$$00000005)
    _printf_a                                0x0800020f   Thumb Code     0  _printf_a.o(.ARM.Collect$$_printf_percent$$00000006)
    _printf_s                                0x08000215   Thumb Code     0  _printf_s.o(.ARM.Collect$$_printf_percent$$00000014)
    _printf_percent_end                      0x0800021b   Thumb Code     0  _printf_percent_end.o(.ARM.Collect$$_printf_percent$$00000017)
    __rt_lib_init                            0x0800021f   Thumb Code     0  libinit.o(.ARM.Collect$$libinit$$00000000)
    __rt_lib_init_fp_1                       0x08000221   Thumb Code     0  libinit2.o(.ARM.Collect$$libinit$$00000001)
    __rt_lib_init_heap_1                     0x08000225   Thumb Code     0  libinit2.o(.ARM.Collect$$libinit$$0000000A)
    __rt_lib_init_lc_common                  0x08000225   Thumb Code     0  libinit2.o(.ARM.Collect$$libinit$$0000000F)
    __rt_lib_init_preinit_1                  0x08000225   Thumb Code     0  libinit2.o(.ARM.Collect$$libinit$$00000004)
    __rt_lib_init_rand_1                     0x08000225   Thumb Code     0  libinit2.o(.ARM.Collect$$libinit$$0000000E)
    __rt_lib_init_user_alloc_1               0x08000225   Thumb Code     0  libinit2.o(.ARM.Collect$$libinit$$0000000C)
    __rt_lib_init_lc_collate_1               0x0800022b   Thumb Code     0  libinit2.o(.ARM.Collect$$libinit$$00000011)
    __rt_lib_init_lc_ctype_2                 0x0800022b   Thumb Code     0  libinit2.o(.ARM.Collect$$libinit$$00000012)
    __rt_lib_init_lc_ctype_1                 0x08000237   Thumb Code     0  libinit2.o(.ARM.Collect$$libinit$$00000013)
    __rt_lib_init_lc_monetary_1              0x08000237   Thumb Code     0  libinit2.o(.ARM.Collect$$libinit$$00000015)
    __rt_lib_init_lc_numeric_2               0x08000237   Thumb Code     0  libinit2.o(.ARM.Collect$$libinit$$00000016)
    __rt_lib_init_alloca_1                   0x08000241   Thumb Code     0  libinit2.o(.ARM.Collect$$libinit$$0000002E)
    __rt_lib_init_argv_1                     0x08000241   Thumb Code     0  libinit2.o(.ARM.Collect$$libinit$$0000002C)
    __rt_lib_init_atexit_1                   0x08000241   Thumb Code     0  libinit2.o(.ARM.Collect$$libinit$$0000001B)
    __rt_lib_init_clock_1                    0x08000241   Thumb Code     0  libinit2.o(.ARM.Collect$$libinit$$00000021)
    __rt_lib_init_cpp_1                      0x08000241   Thumb Code     0  libinit2.o(.ARM.Collect$$libinit$$00000032)
    __rt_lib_init_exceptions_1               0x08000241   Thumb Code     0  libinit2.o(.ARM.Collect$$libinit$$00000030)
    __rt_lib_init_fp_trap_1                  0x08000241   Thumb Code     0  libinit2.o(.ARM.Collect$$libinit$$0000001F)
    __rt_lib_init_getenv_1                   0x08000241   Thumb Code     0  libinit2.o(.ARM.Collect$$libinit$$00000023)
    __rt_lib_init_lc_numeric_1               0x08000241   Thumb Code     0  libinit2.o(.ARM.Collect$$libinit$$00000017)
    __rt_lib_init_lc_time_1                  0x08000241   Thumb Code     0  libinit2.o(.ARM.Collect$$libinit$$00000019)
    __rt_lib_init_return                     0x08000241   Thumb Code     0  libinit2.o(.ARM.Collect$$libinit$$00000033)
    __rt_lib_init_signal_1                   0x08000241   Thumb Code     0  libinit2.o(.ARM.Collect$$libinit$$0000001D)
    __rt_lib_init_stdio_1                    0x08000241   Thumb Code     0  libinit2.o(.ARM.Collect$$libinit$$00000025)
    __rt_lib_shutdown                        0x08000243   Thumb Code     0  libshutdown.o(.ARM.Collect$$libshutdown$$00000000)
    __rt_lib_shutdown_cpp_1                  0x08000245   Thumb Code     0  libshutdown2.o(.ARM.Collect$$libshutdown$$00000002)
    __rt_lib_shutdown_fp_trap_1              0x08000245   Thumb Code     0  libshutdown2.o(.ARM.Collect$$libshutdown$$00000007)
    __rt_lib_shutdown_heap_1                 0x08000245   Thumb Code     0  libshutdown2.o(.ARM.Collect$$libshutdown$$0000000F)
    __rt_lib_shutdown_return                 0x08000245   Thumb Code     0  libshutdown2.o(.ARM.Collect$$libshutdown$$00000010)
    __rt_lib_shutdown_signal_1               0x08000245   Thumb Code     0  libshutdown2.o(.ARM.Collect$$libshutdown$$0000000A)
    __rt_lib_shutdown_stdio_1                0x08000245   Thumb Code     0  libshutdown2.o(.ARM.Collect$$libshutdown$$00000004)
    __rt_lib_shutdown_user_alloc_1           0x08000245   Thumb Code     0  libshutdown2.o(.ARM.Collect$$libshutdown$$0000000C)
    __rt_entry                               0x08000247   Thumb Code     0  __rtentry.o(.ARM.Collect$$rtentry$$00000000)
    __rt_entry_presh_1                       0x08000247   Thumb Code     0  __rtentry2.o(.ARM.Collect$$rtentry$$00000002)
    __rt_entry_sh                            0x08000247   Thumb Code     0  __rtentry4.o(.ARM.Collect$$rtentry$$00000004)
    __rt_entry_li                            0x0800024d   Thumb Code     0  __rtentry2.o(.ARM.Collect$$rtentry$$0000000A)
    __rt_entry_postsh_1                      0x0800024d   Thumb Code     0  __rtentry2.o(.ARM.Collect$$rtentry$$00000009)
    __rt_entry_main                          0x08000251   Thumb Code     0  __rtentry2.o(.ARM.Collect$$rtentry$$0000000D)
    __rt_entry_postli_1                      0x08000251   Thumb Code     0  __rtentry2.o(.ARM.Collect$$rtentry$$0000000C)
    __rt_exit                                0x08000259   Thumb Code     0  rtexit.o(.ARM.Collect$$rtexit$$00000000)
    __rt_exit_ls                             0x0800025b   Thumb Code     0  rtexit2.o(.ARM.Collect$$rtexit$$00000003)
    __rt_exit_prels_1                        0x0800025b   Thumb Code     0  rtexit2.o(.ARM.Collect$$rtexit$$00000002)
    __rt_exit_exit                           0x0800025f   Thumb Code     0  rtexit2.o(.ARM.Collect$$rtexit$$00000004)
    Reset_Handler                            0x08000265   Thumb Code     8  startup_stm32f40_41xxx.o(.text)
    ADC_IRQHandler                           0x0800027f   Thumb Code     0  startup_stm32f40_41xxx.o(.text)
    CAN1_RX0_IRQHandler                      0x0800027f   Thumb Code     0  startup_stm32f40_41xxx.o(.text)
    CAN1_RX1_IRQHandler                      0x0800027f   Thumb Code     0  startup_stm32f40_41xxx.o(.text)
    CAN1_SCE_IRQHandler                      0x0800027f   Thumb Code     0  startup_stm32f40_41xxx.o(.text)
    CAN1_TX_IRQHandler                       0x0800027f   Thumb Code     0  startup_stm32f40_41xxx.o(.text)
    CAN2_RX0_IRQHandler                      0x0800027f   Thumb Code     0  startup_stm32f40_41xxx.o(.text)
    CAN2_RX1_IRQHandler                      0x0800027f   Thumb Code     0  startup_stm32f40_41xxx.o(.text)
    CAN2_SCE_IRQHandler                      0x0800027f   Thumb Code     0  startup_stm32f40_41xxx.o(.text)
    CAN2_TX_IRQHandler                       0x0800027f   Thumb Code     0  startup_stm32f40_41xxx.o(.text)
    CRYP_IRQHandler                          0x0800027f   Thumb Code     0  startup_stm32f40_41xxx.o(.text)
    DCMI_IRQHandler                          0x0800027f   Thumb Code     0  startup_stm32f40_41xxx.o(.text)
    DMA1_Stream0_IRQHandler                  0x0800027f   Thumb Code     0  startup_stm32f40_41xxx.o(.text)
    DMA1_Stream1_IRQHandler                  0x0800027f   Thumb Code     0  startup_stm32f40_41xxx.o(.text)
    DMA1_Stream2_IRQHandler                  0x0800027f   Thumb Code     0  startup_stm32f40_41xxx.o(.text)
    DMA1_Stream3_IRQHandler                  0x0800027f   Thumb Code     0  startup_stm32f40_41xxx.o(.text)
    DMA1_Stream4_IRQHandler                  0x0800027f   Thumb Code     0  startup_stm32f40_41xxx.o(.text)
    DMA1_Stream5_IRQHandler                  0x0800027f   Thumb Code     0  startup_stm32f40_41xxx.o(.text)
    DMA1_Stream6_IRQHandler                  0x0800027f   Thumb Code     0  startup_stm32f40_41xxx.o(.text)
    DMA1_Stream7_IRQHandler                  0x0800027f   Thumb Code     0  startup_stm32f40_41xxx.o(.text)
    DMA2_Stream0_IRQHandler                  0x0800027f   Thumb Code     0  startup_stm32f40_41xxx.o(.text)
    DMA2_Stream1_IRQHandler                  0x0800027f   Thumb Code     0  startup_stm32f40_41xxx.o(.text)
    DMA2_Stream2_IRQHandler                  0x0800027f   Thumb Code     0  startup_stm32f40_41xxx.o(.text)
    DMA2_Stream3_IRQHandler                  0x0800027f   Thumb Code     0  startup_stm32f40_41xxx.o(.text)
    DMA2_Stream4_IRQHandler                  0x0800027f   Thumb Code     0  startup_stm32f40_41xxx.o(.text)
    DMA2_Stream5_IRQHandler                  0x0800027f   Thumb Code     0  startup_stm32f40_41xxx.o(.text)
    DMA2_Stream6_IRQHandler                  0x0800027f   Thumb Code     0  startup_stm32f40_41xxx.o(.text)
    DMA2_Stream7_IRQHandler                  0x0800027f   Thumb Code     0  startup_stm32f40_41xxx.o(.text)
    ETH_IRQHandler                           0x0800027f   Thumb Code     0  startup_stm32f40_41xxx.o(.text)
    ETH_WKUP_IRQHandler                      0x0800027f   Thumb Code     0  startup_stm32f40_41xxx.o(.text)
    FLASH_IRQHandler                         0x0800027f   Thumb Code     0  startup_stm32f40_41xxx.o(.text)
    FPU_IRQHandler                           0x0800027f   Thumb Code     0  startup_stm32f40_41xxx.o(.text)
    FSMC_IRQHandler                          0x0800027f   Thumb Code     0  startup_stm32f40_41xxx.o(.text)
    HASH_RNG_IRQHandler                      0x0800027f   Thumb Code     0  startup_stm32f40_41xxx.o(.text)
    I2C1_ER_IRQHandler                       0x0800027f   Thumb Code     0  startup_stm32f40_41xxx.o(.text)
    I2C1_EV_IRQHandler                       0x0800027f   Thumb Code     0  startup_stm32f40_41xxx.o(.text)
    I2C2_ER_IRQHandler                       0x0800027f   Thumb Code     0  startup_stm32f40_41xxx.o(.text)
    I2C2_EV_IRQHandler                       0x0800027f   Thumb Code     0  startup_stm32f40_41xxx.o(.text)
    I2C3_ER_IRQHandler                       0x0800027f   Thumb Code     0  startup_stm32f40_41xxx.o(.text)
    I2C3_EV_IRQHandler                       0x0800027f   Thumb Code     0  startup_stm32f40_41xxx.o(.text)
    OTG_FS_IRQHandler                        0x0800027f   Thumb Code     0  startup_stm32f40_41xxx.o(.text)
    OTG_FS_WKUP_IRQHandler                   0x0800027f   Thumb Code     0  startup_stm32f40_41xxx.o(.text)
    OTG_HS_EP1_IN_IRQHandler                 0x0800027f   Thumb Code     0  startup_stm32f40_41xxx.o(.text)
    OTG_HS_EP1_OUT_IRQHandler                0x0800027f   Thumb Code     0  startup_stm32f40_41xxx.o(.text)
    OTG_HS_IRQHandler                        0x0800027f   Thumb Code     0  startup_stm32f40_41xxx.o(.text)
    OTG_HS_WKUP_IRQHandler                   0x0800027f   Thumb Code     0  startup_stm32f40_41xxx.o(.text)
    PVD_IRQHandler                           0x0800027f   Thumb Code     0  startup_stm32f40_41xxx.o(.text)
    RCC_IRQHandler                           0x0800027f   Thumb Code     0  startup_stm32f40_41xxx.o(.text)
    RTC_Alarm_IRQHandler                     0x0800027f   Thumb Code     0  startup_stm32f40_41xxx.o(.text)
    RTC_WKUP_IRQHandler                      0x0800027f   Thumb Code     0  startup_stm32f40_41xxx.o(.text)
    SDIO_IRQHandler                          0x0800027f   Thumb Code     0  startup_stm32f40_41xxx.o(.text)
    SPI1_IRQHandler                          0x0800027f   Thumb Code     0  startup_stm32f40_41xxx.o(.text)
    SPI2_IRQHandler                          0x0800027f   Thumb Code     0  startup_stm32f40_41xxx.o(.text)
    SPI3_IRQHandler                          0x0800027f   Thumb Code     0  startup_stm32f40_41xxx.o(.text)
    TAMP_STAMP_IRQHandler                    0x0800027f   Thumb Code     0  startup_stm32f40_41xxx.o(.text)
    TIM1_CC_IRQHandler                       0x0800027f   Thumb Code     0  startup_stm32f40_41xxx.o(.text)
    TIM8_CC_IRQHandler                       0x0800027f   Thumb Code     0  startup_stm32f40_41xxx.o(.text)
    UART4_IRQHandler                         0x0800027f   Thumb Code     0  startup_stm32f40_41xxx.o(.text)
    UART5_IRQHandler                         0x0800027f   Thumb Code     0  startup_stm32f40_41xxx.o(.text)
    USART2_IRQHandler                        0x0800027f   Thumb Code     0  startup_stm32f40_41xxx.o(.text)
    USART3_IRQHandler                        0x0800027f   Thumb Code     0  startup_stm32f40_41xxx.o(.text)
    USART6_IRQHandler                        0x0800027f   Thumb Code     0  startup_stm32f40_41xxx.o(.text)
    WWDG_IRQHandler                          0x0800027f   Thumb Code     0  startup_stm32f40_41xxx.o(.text)
    __user_initial_stackheap                 0x08000281   Thumb Code     0  startup_stm32f40_41xxx.o(.text)
    __use_no_semihosting                     0x080002a1   Thumb Code     2  use_no_semi_2.o(.text)
    __2printf                                0x080002a5   Thumb Code    20  noretval__2printf.o(.text)
    __2sprintf                               0x080002bd   Thumb Code    34  noretval__2sprintf.o(.text)
    _printf_pre_padding                      0x080002e5   Thumb Code    44  _printf_pad.o(.text)
    _printf_post_padding                     0x08000311   Thumb Code    34  _printf_pad.o(.text)
    _printf_str                              0x08000333   Thumb Code    82  _printf_str.o(.text)
    __printf                                 0x08000385   Thumb Code   388  __printf_flags_ss_wp.o(.text)
    strstr                                   0x0800050d   Thumb Code    36  strstr.o(.text)
    __aeabi_memcpy4                          0x08000531   Thumb Code     0  rt_memcpy_w.o(.text)
    __aeabi_memcpy8                          0x08000531   Thumb Code     0  rt_memcpy_w.o(.text)
    __rt_memcpy_w                            0x08000531   Thumb Code   100  rt_memcpy_w.o(.text)
    _memcpy_lastbytes_aligned                0x08000579   Thumb Code     0  rt_memcpy_w.o(.text)
    __aeabi_memclr4                          0x08000595   Thumb Code     0  rt_memclr_w.o(.text)
    __aeabi_memclr8                          0x08000595   Thumb Code     0  rt_memclr_w.o(.text)
    __rt_memclr_w                            0x08000595   Thumb Code    78  rt_memclr_w.o(.text)
    _memset_w                                0x08000599   Thumb Code     0  rt_memclr_w.o(.text)
    __use_two_region_memory                  0x080005e3   Thumb Code     2  heapauxi.o(.text)
    __rt_heap_escrow$2region                 0x080005e5   Thumb Code     2  heapauxi.o(.text)
    __rt_heap_expand$2region                 0x080005e7   Thumb Code     2  heapauxi.o(.text)
    __I$use$semihosting                      0x080005e9   Thumb Code     0  use_no_semi.o(.text)
    __use_no_semihosting_swi                 0x080005e9   Thumb Code     2  use_no_semi.o(.text)
    __read_errno                             0x080005eb   Thumb Code    10  _rserrno.o(.text)
    __set_errno                              0x080005f5   Thumb Code    12  _rserrno.o(.text)
    __lib_sel_fp_printf                      0x08000601   Thumb Code     2  _printf_fp_dec.o(.text)
    _printf_fp_dec_real                      0x080007b3   Thumb Code   620  _printf_fp_dec.o(.text)
    _printf_fp_hex_real                      0x08000a21   Thumb Code   756  _printf_fp_hex.o(.text)
    _printf_char_common                      0x08000d27   Thumb Code    32  _printf_char_common.o(.text)
    _sputc                                   0x08000d4d   Thumb Code    10  _sputc.o(.text)
    _printf_cs_common                        0x08000d57   Thumb Code    20  _printf_char.o(.text)
    _printf_char                             0x08000d6b   Thumb Code    16  _printf_char.o(.text)
    _printf_string                           0x08000d7b   Thumb Code     8  _printf_char.o(.text)
    _printf_char_file                        0x08000d85   Thumb Code    32  _printf_char_file.o(.text)
    __strtod_int                             0x08000de5   Thumb Code    90  strtod.o(.text)
    __rt_locale                              0x08000e4d   Thumb Code     8  rt_locale_intlibspace.o(.text)
    __aeabi_errno_addr                       0x08000e55   Thumb Code     8  rt_errno_addr_intlibspace.o(.text)
    __errno$intlibspace                      0x08000e55   Thumb Code     0  rt_errno_addr_intlibspace.o(.text)
    __rt_errno_addr$intlibspace              0x08000e55   Thumb Code     0  rt_errno_addr_intlibspace.o(.text)
    _ll_udiv10                               0x08000e5d   Thumb Code   138  lludiv10.o(.text)
    isspace                                  0x08000ee7   Thumb Code    18  isspace.o(.text)
    _printf_fp_infnan                        0x08000ef9   Thumb Code   112  _printf_fp_infnan.o(.text)
    _sgetc                                   0x08000f79   Thumb Code    30  _sgetc.o(.text)
    _sbackspace                              0x08000f97   Thumb Code    34  _sgetc.o(.text)
    _btod_etento                             0x08000fb9   Thumb Code   224  bigflt0.o(.text)
    ferror                                   0x0800109d   Thumb Code     8  ferror.o(.text)
    __user_libspace                          0x080010a5   Thumb Code     8  libspace.o(.text)
    __user_perproc_libspace                  0x080010a5   Thumb Code     0  libspace.o(.text)
    __user_perthread_libspace                0x080010a5   Thumb Code     0  libspace.o(.text)
    __user_setup_stackheap                   0x080010ad   Thumb Code    74  sys_stackheap_outer.o(.text)
    __rt_ctype_table                         0x080010f9   Thumb Code    16  rt_ctype_table.o(.text)
    _scanf_really_real                       0x08001355   Thumb Code   684  scanf_fp.o(.text)
    exit                                     0x08001601   Thumb Code    18  exit.o(.text)
    strcmp                                   0x08001615   Thumb Code   128  strcmpv7m.o(.text)
    _scanf_really_hex_real                   0x08001695   Thumb Code   786  scanf_hexfp.o(.text)
    _scanf_really_infnan                     0x080019b5   Thumb Code   292  scanf_infnan.o(.text)
    __aeabi_llsl                             0x08001ae9   Thumb Code     0  llshl.o(.text)
    _ll_shift_l                              0x08001ae9   Thumb Code    38  llshl.o(.text)
    _chval                                   0x08001b0f   Thumb Code    28  _chval.o(.text)
    _btod_d2e                                0x08001b2b   Thumb Code    62  btod.o(CL$$btod_d2e)
    _d2e_denorm_low                          0x08001b69   Thumb Code    70  btod.o(CL$$btod_d2e_denorm_low)
    _d2e_norm_op1                            0x08001baf   Thumb Code    96  btod.o(CL$$btod_d2e_norm_op1)
    __btod_div_common                        0x08001c0f   Thumb Code   696  btod.o(CL$$btod_div_common)
    _e2d                                     0x08001f49   Thumb Code   122  btod.o(CL$$btod_e2d)
    _e2e                                     0x08001fcd   Thumb Code   220  btod.o(CL$$btod_e2e)
    _btod_ediv                               0x080020a9   Thumb Code    42  btod.o(CL$$btod_ediv)
    _btod_edivd                              0x080020d3   Thumb Code    42  btod.o(CL$$btod_edivd)
    _btod_emul                               0x080020fd   Thumb Code    42  btod.o(CL$$btod_emul)
    _btod_emuld                              0x08002127   Thumb Code    42  btod.o(CL$$btod_emuld)
    __btod_mult_common                       0x08002151   Thumb Code   580  btod.o(CL$$btod_mult_common)
    OS_CPU_SR_Save                           0x08002395   Thumb Code     0  core.o(CODE)
    OS_CPU_SR_Restore                        0x0800239d   Thumb Code     0  core.o(CODE)
    OSCtxSw                                  0x080023a3   Thumb Code     0  core.o(CODE)
    OSStartHighRdy                           0x080023ad   Thumb Code     0  core.o(CODE)
    PendSV_Handler                           0x080023cd   Thumb Code     0  core.o(CODE)
    ADC1_Init                                0x08002425   Thumb Code   120  drive_adc.o(i.ADC1_Init)
    ADC_Cmd                                  0x080024a5   Thumb Code    22  stm32f4xx_adc.o(i.ADC_Cmd)
    ADC_CommonInit                           0x080024bd   Thumb Code    34  stm32f4xx_adc.o(i.ADC_CommonInit)
    ADC_GetConversionValue                   0x080024ed   Thumb Code     8  stm32f4xx_adc.o(i.ADC_GetConversionValue)
    ADC_GetFlagStatus                        0x080024f5   Thumb Code    18  stm32f4xx_adc.o(i.ADC_GetFlagStatus)
    ADC_Init                                 0x08002509   Thumb Code    74  stm32f4xx_adc.o(i.ADC_Init)
    ADC_RegularChannelConfig                 0x0800255d   Thumb Code   184  stm32f4xx_adc.o(i.ADC_RegularChannelConfig)
    ADC_Result_Get                           0x08002615   Thumb Code    68  drive_adc.o(i.ADC_Result_Get)
    ADC_SoftwareStartConv                    0x08002665   Thumb Code    10  stm32f4xx_adc.o(i.ADC_SoftwareStartConv)
    ADF4351Init                              0x0800266f   Thumb Code   200  drive_adf4351.o(i.ADF4351Init)
    ADF4351WriteFreq                         0x08002739   Thumb Code   460  drive_adf4351.o(i.ADF4351WriteFreq)
    ADF4351_Sweep_main                       0x0800293d   Thumb Code   194  app_adf4351_sweep.o(i.ADF4351_Sweep_main)
    ADF4351_main                             0x08002a21   Thumb Code    50  app_adf4351.o(i.ADF4351_main)
    ADF_Output_GPIOInit                      0x08002a59   Thumb Code    44  drive_adf4351.o(i.ADF_Output_GPIOInit)
    ADS1256ReadData                          0x08002a89   Thumb Code   114  drive_ads1256.o(i.ADS1256ReadData)
    ADS1256WREG                              0x08002b01   Thumb Code    74  drive_ads1256.o(i.ADS1256WREG)
    AF_Multi_Measuring                       0x08002cb9   Thumb Code  1846  app_freqana.o(i.AF_Multi_Measuring)
    BusFault_Handler                         0x08003455   Thumb Code     4  stm32f4xx_it.o(i.BusFault_Handler)
    Clear_Show                               0x08003459   Thumb Code    64  drive_touchkey.o(i.Clear_Show)
    DAC_Cmd                                  0x080034a9   Thumb Code    34  stm32f4xx_dac.o(i.DAC_Cmd)
    DAC_Init                                 0x080034d1   Thumb Code    46  stm32f4xx_dac.o(i.DAC_Init)
    DAC_SetChannel2Data                      0x08003505   Thumb Code    26  stm32f4xx_dac.o(i.DAC_SetChannel2Data)
    Dac2_Init                                0x08003525   Thumb Code    84  drive_dac.o(i.Dac2_Init)
    Dac2_Set_Vol                             0x0800357d   Thumb Code    14  drive_dac.o(i.Dac2_Set_Vol)
    DebugMon_Handler                         0x0800358b   Thumb Code     2  stm32f4xx_it.o(i.DebugMon_Handler)
    Draw_Graph                               0x0800359d   Thumb Code   834  os_ui.o(i.Draw_Graph)
    Draw_Grid                                0x080038e5   Thumb Code   990  os_ui.o(i.Draw_Grid)
    ESP8266_Client_Connect_Server            0x08003cc5   Thumb Code    82  drive_communication.o(i.ESP8266_Client_Connect_Server)
    EXTI0_IRQHandler                         0x08003d79   Thumb Code    10  drive_interrupt.o(i.EXTI0_IRQHandler)
    EXTI15_10_IRQHandler                     0x08003d83   Thumb Code    22  drive_interrupt.o(i.EXTI15_10_IRQHandler)
    EXTI1_IRQHandler                         0x08003d99   Thumb Code    18  drive_interrupt.o(i.EXTI1_IRQHandler)
    EXTI2_IRQHandler                         0x08003dab   Thumb Code    18  drive_interrupt.o(i.EXTI2_IRQHandler)
    EXTI3_IRQHandler                         0x08003dbd   Thumb Code    18  drive_interrupt.o(i.EXTI3_IRQHandler)
    EXTI4_IRQHandler                         0x08003dcf   Thumb Code    18  drive_interrupt.o(i.EXTI4_IRQHandler)
    EXTI9_5_IRQHandler                       0x08003de1   Thumb Code    18  drive_interrupt.o(i.EXTI9_5_IRQHandler)
    EXTI_ClearITPendingBit                   0x08003df5   Thumb Code     6  stm32f4xx_exti.o(i.EXTI_ClearITPendingBit)
    EXTI_GetITStatus                         0x08003e01   Thumb Code    20  stm32f4xx_exti.o(i.EXTI_GetITStatus)
    FSMC_NORSRAMCmd                          0x08003e19   Thumb Code    46  stm32f4xx_fsmc.o(i.FSMC_NORSRAMCmd)
    FSMC_NORSRAMInit                         0x08003e4d   Thumb Code   230  stm32f4xx_fsmc.o(i.FSMC_NORSRAMInit)
    FreqAna_main                             0x08003f35   Thumb Code   172  app_freqana.o(i.FreqAna_main)
    GPIO_Init                                0x0800408d   Thumb Code   144  stm32f4xx_gpio.o(i.GPIO_Init)
    GPIO_Key_Init                            0x0800411d   Thumb Code    54  drive_gpio.o(i.GPIO_Key_Init)
    GPIO_PinAFConfig                         0x0800415d   Thumb Code    70  stm32f4xx_gpio.o(i.GPIO_PinAFConfig)
    GPIO_ResetBits                           0x080041a3   Thumb Code     4  stm32f4xx_gpio.o(i.GPIO_ResetBits)
    GPIO_SetBits                             0x080041a7   Thumb Code     4  stm32f4xx_gpio.o(i.GPIO_SetBits)
    Get_Val                                  0x080041ad   Thumb Code    98  drive_ads1256.o(i.Get_Val)
    GridData_Init                            0x08004215   Thumb Code    92  app_freqana.o(i.GridData_Init)
    HardFault_Handler                        0x08004289   Thumb Code     4  stm32f4xx_it.o(i.HardFault_Handler)
    Key_Now_Get                              0x0800428d   Thumb Code   176  app_key.o(i.Key_Now_Get)
    Key_main                                 0x08004341   Thumb Code   452  app_key.o(i.Key_main)
    LCD_Clear                                0x08004511   Thumb Code    38  tft_lcd.o(i.LCD_Clear)
    LCD_CtrlLinesConfig                      0x0800453d   Thumb Code   322  tft_lcd.o(i.LCD_CtrlLinesConfig)
    LCD_DrawRectS                            0x08004691   Thumb Code    58  tft_lcd.o(i.LCD_DrawRectS)
    LCD_DrawuniLine                          0x080046d1   Thumb Code   286  tft_lcd.o(i.LCD_DrawuniLine)
    LCD_FSMCConfig                           0x080047ef   Thumb Code    94  tft_lcd.o(i.LCD_FSMCConfig)
    LCD_REG_Select                           0x0800484d   Thumb Code     8  tft_lcd.o(i.LCD_REG_Select)
    LCD_SetCursor                            0x08004855   Thumb Code    68  tft_lcd.o(i.LCD_SetCursor)
    LCD_SetDisplayWindow                     0x08004899   Thumb Code    76  tft_lcd.o(i.LCD_SetDisplayWindow)
    LCD_WriteRAM                             0x080048e5   Thumb Code     8  tft_lcd.o(i.LCD_WriteRAM)
    LCD_WriteRAM_Prepare                     0x080048ed   Thumb Code    10  tft_lcd.o(i.LCD_WriteRAM_Prepare)
    LED_Control                              0x080048f9   Thumb Code   152  app_led.o(i.LED_Control)
    LED_Init                                 0x0800499d   Thumb Code    70  drive_gpio.o(i.LED_Init)
    LED_main                                 0x080049ed   Thumb Code    40  app_led.o(i.LED_main)
    MemManage_Handler                        0x08004a19   Thumb Code     4  stm32f4xx_it.o(i.MemManage_Handler)
    NMI_Handler                              0x08004a1d   Thumb Code     2  stm32f4xx_it.o(i.NMI_Handler)
    NVIC_Init                                0x08004a21   Thumb Code   106  misc.o(i.NVIC_Init)
    OSDelPrioRdy                             0x08004a99   Thumb Code    16  os_cpu.o(i.OSDelPrioRdy)
    OSGetHighRdy                             0x08004aad   Thumb Code    32  os_cpu.o(i.OSGetHighRdy)
    OSSetPrioRdy                             0x08004ad5   Thumb Code    16  os_cpu.o(i.OSSetPrioRdy)
    OSTaskRecovery                           0x08004ae9   Thumb Code   108  os_cpu.o(i.OSTaskRecovery)
    OSTaskSuspend                            0x08004b5d   Thumb Code    90  os_cpu.o(i.OSTaskSuspend)
    OSTimeDly                                0x08004bc5   Thumb Code    50  os_cpu.o(i.OSTimeDly)
    OS_Char_Show                             0x08004c01   Thumb Code   266  os_ui.o(i.OS_Char_Show)
    OS_Font_Show                             0x08004d21   Thumb Code   192  os_ui.o(i.OS_Font_Show)
    OS_HzMat_Get                             0x08004de9   Thumb Code   218  os_ui.o(i.OS_HzMat_Get)
    OS_IDLE_Task                             0x08004ec9   Thumb Code     8  os_cpu.o(i.OS_IDLE_Task)
    OS_Init                                  0x08004ed1   Thumb Code    48  main.o(i.OS_Init)
    OS_LCD_Clear                             0x08004f01   Thumb Code    14  os_ui.o(i.OS_LCD_Clear)
    OS_LCD_Init                              0x08004f11   Thumb Code    60  os_ui.o(i.OS_LCD_Init)
    OS_Line_Draw                             0x08004f65   Thumb Code   198  os_ui.o(i.OS_Line_Draw)
    OS_Num_Show                              0x0800502d   Thumb Code    92  os_ui.o(i.OS_Num_Show)
    OS_Point_Draw                            0x0800508d   Thumb Code    30  os_ui.o(i.OS_Point_Draw)
    OS_Rect_Draw                             0x080050ad   Thumb Code   146  os_ui.o(i.OS_Rect_Draw)
    OS_Sched                                 0x08005145   Thumb Code    68  os_cpu.o(i.OS_Sched)
    OS_SchedLock                             0x0800519d   Thumb Code    22  os_cpu.o(i.OS_SchedLock)
    OS_SchedUnlock                           0x080051b9   Thumb Code    22  os_cpu.o(i.OS_SchedUnlock)
    OS_Start                                 0x080051d5   Thumb Code    66  os_cpu.o(i.OS_Start)
    OS_String_Show                           0x0800523d   Thumb Code   124  os_ui.o(i.OS_String_Show)
    PID_Init                                 0x080052b9   Thumb Code    72  app_switch.o(i.PID_Init)
    PutPixel                                 0x0800531d   Thumb Code    28  tft_lcd.o(i.PutPixel)
    RCC_AHB1PeriphClockCmd                   0x0800533d   Thumb Code    26  stm32f4xx_rcc.o(i.RCC_AHB1PeriphClockCmd)
    RCC_AHB3PeriphClockCmd                   0x0800535d   Thumb Code    26  stm32f4xx_rcc.o(i.RCC_AHB3PeriphClockCmd)
    RCC_APB1PeriphClockCmd                   0x0800537d   Thumb Code    26  stm32f4xx_rcc.o(i.RCC_APB1PeriphClockCmd)
    RCC_APB2PeriphClockCmd                   0x0800539d   Thumb Code    26  stm32f4xx_rcc.o(i.RCC_APB2PeriphClockCmd)
    RCC_APB2PeriphResetCmd                   0x080053bd   Thumb Code    26  stm32f4xx_rcc.o(i.RCC_APB2PeriphResetCmd)
    RCC_GetClocksFreq                        0x080053dd   Thumb Code   214  stm32f4xx_rcc.o(i.RCC_GetClocksFreq)
    SPI1_Init                                0x080054c5   Thumb Code   198  spi.o(i.SPI1_Init)
    SPI1_ReadWriteByte                       0x08005599   Thumb Code    50  spi.o(i.SPI1_ReadWriteByte)
    SPI1_SetSpeed                            0x080055d1   Thumb Code    36  spi.o(i.SPI1_SetSpeed)
    SPI_Cmd                                  0x080055f9   Thumb Code    24  stm32f4xx_spi.o(i.SPI_Cmd)
    SPI_I2S_GetFlagStatus                    0x08005611   Thumb Code    18  stm32f4xx_spi.o(i.SPI_I2S_GetFlagStatus)
    SPI_I2S_ReceiveData                      0x08005623   Thumb Code     6  stm32f4xx_spi.o(i.SPI_I2S_ReceiveData)
    SPI_I2S_SendData                         0x08005629   Thumb Code     4  stm32f4xx_spi.o(i.SPI_I2S_SendData)
    SPI_Init                                 0x0800562d   Thumb Code    60  stm32f4xx_spi.o(i.SPI_Init)
    SPI_ReadByte                             0x08005669   Thumb Code    68  drive_ads1256.o(i.SPI_ReadByte)
    SPI_WriteByte                            0x080056b1   Thumb Code    80  drive_ads1256.o(i.SPI_WriteByte)
    SVC_Handler                              0x08005705   Thumb Code     2  stm32f4xx_it.o(i.SVC_Handler)
    Show_Label                               0x080057f5   Thumb Code   772  os_ui.o(i.Show_Label)
    Start_Meum                               0x08005b3d   Thumb Code   602  app_adf4351.o(i.Start_Meum)
    Switch_main                              0x08005e41   Thumb Code   246  app_switch.o(i.Switch_main)
    SysTick_CLKSourceConfig                  0x08005f55   Thumb Code    40  misc.o(i.SysTick_CLKSourceConfig)
    SysTick_Handler                          0x08005f7d   Thumb Code   120  os_cpu.o(i.SysTick_Handler)
    SystemInit                               0x08006001   Thumb Code    88  system_stm32f4xx.o(i.SystemInit)
    System_init                              0x08006069   Thumb Code    76  os_cpu.o(i.System_init)
    TFT_LCD_Init                             0x080060c5   Thumb Code   496  tft_lcd.o(i.TFT_LCD_Init)
    TIM1_BRK_TIM9_IRQHandler                 0x080062b5   Thumb Code    22  drive_interrupt.o(i.TIM1_BRK_TIM9_IRQHandler)
    TIM1_TRG_COM_TIM11_IRQHandler            0x080062d1   Thumb Code    22  drive_interrupt.o(i.TIM1_TRG_COM_TIM11_IRQHandler)
    TIM1_UP_TIM10_IRQHandler                 0x080062ed   Thumb Code    22  drive_interrupt.o(i.TIM1_UP_TIM10_IRQHandler)
    TIM2_IRQHandler                          0x08006309   Thumb Code    22  drive_interrupt.o(i.TIM2_IRQHandler)
    TIM3_IRQHandler                          0x08006321   Thumb Code    22  drive_interrupt.o(i.TIM3_IRQHandler)
    TIM4_IRQHandler                          0x0800633d   Thumb Code    34  drive_interrupt.o(i.TIM4_IRQHandler)
    TIM5_IRQHandler                          0x08006365   Thumb Code    42  drive_interrupt.o(i.TIM5_IRQHandler)
    TIM6_DAC_IRQHandler                      0x08006395   Thumb Code    22  drive_interrupt.o(i.TIM6_DAC_IRQHandler)
    TIM7_IRQHandler                          0x080063b1   Thumb Code    22  drive_interrupt.o(i.TIM7_IRQHandler)
    TIM8_BRK_TIM12_IRQHandler                0x080063cd   Thumb Code    22  drive_interrupt.o(i.TIM8_BRK_TIM12_IRQHandler)
    TIM8_TRG_COM_TIM14_IRQHandler            0x080063e9   Thumb Code    22  drive_interrupt.o(i.TIM8_TRG_COM_TIM14_IRQHandler)
    TIM8_UP_TIM13_IRQHandler                 0x08006405   Thumb Code    22  drive_interrupt.o(i.TIM8_UP_TIM13_IRQHandler)
    TIM_ClearITPendingBit                    0x08006421   Thumb Code     6  stm32f4xx_tim.o(i.TIM_ClearITPendingBit)
    TIM_GetITStatus                          0x08006427   Thumb Code    34  stm32f4xx_tim.o(i.TIM_GetITStatus)
    Task_Create                              0x08006449   Thumb Code   486  os_cpu.o(i.Task_Create)
    Task_End                                 0x08006639   Thumb Code     4  os_cpu.o(i.Task_End)
    TouchKey_Draw                            0x0800663d   Thumb Code   664  drive_touchkey.o(i.TouchKey_Draw)
    TouchKey_Scan                            0x08006921   Thumb Code  1338  drive_touchkey.o(i.TouchKey_Scan)
    TouchRead                                0x08006e81   Thumb Code   172  drive_touch.o(i.TouchRead)
    Touch_Clear                              0x08006f2d   Thumb Code    16  app_touch.o(i.Touch_Clear)
    Touch_Handle                             0x08006f41   Thumb Code  1190  app_adf4351.o(i.Touch_Handle)
    Touch_Init                               0x080073e7   Thumb Code     8  drive_touch.o(i.Touch_Init)
    Touch_Judge                              0x080073f1   Thumb Code    90  app_touch.o(i.Touch_Judge)
    Touch_main                               0x08007451   Thumb Code   132  app_touch.o(i.Touch_main)
    USART1_IRQHandler                        0x080074e1   Thumb Code   190  usart.o(i.USART1_IRQHandler)
    USART_Cmd                                0x080075b9   Thumb Code    24  stm32f4xx_usart.o(i.USART_Cmd)
    USART_GetFlagStatus                      0x080075d1   Thumb Code    26  stm32f4xx_usart.o(i.USART_GetFlagStatus)
    USART_GetITStatus                        0x080075eb   Thumb Code    84  stm32f4xx_usart.o(i.USART_GetITStatus)
    USART_ITConfig                           0x0800763f   Thumb Code    74  stm32f4xx_usart.o(i.USART_ITConfig)
    USART_Init                               0x08007689   Thumb Code   204  stm32f4xx_usart.o(i.USART_Init)
    USART_ReceiveData                        0x0800775d   Thumb Code    10  stm32f4xx_usart.o(i.USART_ReceiveData)
    USART_SendData                           0x08007767   Thumb Code     8  stm32f4xx_usart.o(i.USART_SendData)
    UsageFault_Handler                       0x0800776f   Thumb Code     4  stm32f4xx_it.o(i.UsageFault_Handler)
    W25Q64_Init                              0x08007775   Thumb Code   106  w25q64.o(i.W25Q64_Init)
    W25Q64_Read                              0x080077ed   Thumb Code    82  w25q64.o(i.W25Q64_Read)
    W25Q64_ReadID                            0x08007845   Thumb Code    70  w25q64.o(i.W25Q64_ReadID)
    WriteOneRegToADF4351                     0x08007891   Thumb Code    42  drive_adf4351.o(i.WriteOneRegToADF4351)
    WriteToADF4351                           0x080078bd   Thumb Code   176  drive_adf4351.o(i.WriteToADF4351)
    __ARM_fpclassify                         0x08007975   Thumb Code    48  fpclassify.o(i.__ARM_fpclassify)
    __ARM_fpclassifyf                        0x080079a5   Thumb Code    38  fpclassifyf.o(i.__ARM_fpclassifyf)
    __hardfp___mathlib_tofloat               0x080079d1   Thumb Code   232  narrow.o(i.__hardfp___mathlib_tofloat)
    __hardfp_atof                            0x08007ac9   Thumb Code    44  atof.o(i.__hardfp_atof)
    __hardfp_ldexp                           0x08007b01   Thumb Code   200  ldexp.o(i.__hardfp_ldexp)
    __hardfp_log10f                          0x08007bd1   Thumb Code   332  log10f.o(i.__hardfp_log10f)
    __hardfp_powf                            0x08007d51   Thumb Code  1606  powf.o(i.__hardfp_powf)
    __mathlib_powf                           0x08007d51   Thumb Code     0  powf.o(i.__hardfp_powf)
    __mathlib_dbl_overflow                   0x080083b9   Thumb Code    24  dunder.o(i.__mathlib_dbl_overflow)
    __mathlib_dbl_underflow                  0x080083d9   Thumb Code    24  dunder.o(i.__mathlib_dbl_underflow)
    __mathlib_flt_divzero                    0x080083f9   Thumb Code    14  funder.o(i.__mathlib_flt_divzero)
    __mathlib_flt_infnan                     0x0800840d   Thumb Code     6  funder.o(i.__mathlib_flt_infnan)
    __mathlib_flt_infnan2                    0x08008413   Thumb Code     6  funder.o(i.__mathlib_flt_infnan2)
    __mathlib_flt_invalid                    0x08008419   Thumb Code    10  funder.o(i.__mathlib_flt_invalid)
    __mathlib_flt_overflow                   0x08008429   Thumb Code    10  funder.o(i.__mathlib_flt_overflow)
    __mathlib_flt_underflow                  0x08008439   Thumb Code    10  funder.o(i.__mathlib_flt_underflow)
    __mathlib_narrow                         0x08008449   Thumb Code    18  narrow.o(i.__mathlib_narrow)
    __support_ldexp                          0x0800845b   Thumb Code    20  ldexp.o(i.__support_ldexp)
    _is_digit                                0x0800846f   Thumb Code    14  __printf_wp.o(i._is_digit)
    _sys_exit                                0x0800847d   Thumb Code     4  usart.o(i._sys_exit)
    atk_8266_check_cmd                       0x08008481   Thumb Code    44  usart.o(i.atk_8266_check_cmd)
    atk_8266_send_cmd                        0x080084b5   Thumb Code    84  usart.o(i.atk_8266_send_cmd)
    delay_ms                                 0x08008551   Thumb Code    60  delay.o(i.delay_ms)
    delay_us                                 0x08008595   Thumb Code    92  delay.o(i.delay_us)
    font_init                                0x080085f5   Thumb Code    64  fontupd.o(i.font_init)
    fputc                                    0x08008639   Thumb Code    22  usart.o(i.fputc)
    frexp                                    0x08008659   Thumb Code   118  frexp.o(i.frexp)
    main                                     0x080086e5   Thumb Code    90  main.o(i.main)
    pid_calc                                 0x08008779   Thumb Code   150  drive_pid.o(i.pid_calc)
    pid_init                                 0x08008811   Thumb Code   180  drive_pid.o(i.pid_init)
    pid_reset                                0x080088c9   Thumb Code   122  drive_pid.o(i.pid_reset)
    sendData                                 0x08008949   Thumb Code   110  drive_communication.o(i.sendData)
    uart_init                                0x080089d5   Thumb Code   164  usart.o(i.uart_init)
    _get_lc_numeric                          0x08008ab1   Thumb Code    44  lc_numeric_c.o(locale$$code)
    _get_lc_ctype                            0x08008add   Thumb Code    44  lc_ctype_c.o(locale$$code)
    __aeabi_d2f                              0x08008b09   Thumb Code     0  d2f.o(x$fpl$d2f)
    _d2f                                     0x08008b09   Thumb Code    98  d2f.o(x$fpl$d2f)
    __aeabi_dadd                             0x08008b6d   Thumb Code     0  daddsub_clz.o(x$fpl$dadd)
    _dadd                                    0x08008b6d   Thumb Code   332  daddsub_clz.o(x$fpl$dadd)
    __fpl_dcheck_NaN1                        0x08008cbd   Thumb Code    10  dcheck1.o(x$fpl$dcheck1)
    __fpl_dcmp_Inf                           0x08008ccd   Thumb Code    24  dcmpi.o(x$fpl$dcmpinf)
    __aeabi_ddiv                             0x08008ce5   Thumb Code     0  ddiv.o(x$fpl$ddiv)
    _ddiv                                    0x08008ce5   Thumb Code   552  ddiv.o(x$fpl$ddiv)
    __aeabi_cdcmpeq                          0x08008f95   Thumb Code     0  deqf.o(x$fpl$deqf)
    _dcmpeq                                  0x08008f95   Thumb Code   120  deqf.o(x$fpl$deqf)
    __aeabi_d2uiz                            0x0800900d   Thumb Code     0  dfixu.o(x$fpl$dfixu)
    _dfixu                                   0x0800900d   Thumb Code    90  dfixu.o(x$fpl$dfixu)
    __aeabi_i2d                              0x08009067   Thumb Code     0  dflt_clz.o(x$fpl$dflt)
    _dflt                                    0x08009067   Thumb Code    46  dflt_clz.o(x$fpl$dflt)
    __aeabi_ui2d                             0x08009095   Thumb Code     0  dflt_clz.o(x$fpl$dfltu)
    _dfltu                                   0x08009095   Thumb Code    38  dflt_clz.o(x$fpl$dfltu)
    __aeabi_cdcmple                          0x080090bd   Thumb Code     0  dleqf.o(x$fpl$dleqf)
    _dcmple                                  0x080090bd   Thumb Code   120  dleqf.o(x$fpl$dleqf)
    __fpl_dcmple_InfNaN                      0x0800911f   Thumb Code     0  dleqf.o(x$fpl$dleqf)
    __aeabi_dmul                             0x08009135   Thumb Code     0  dmul.o(x$fpl$dmul)
    _dmul                                    0x08009135   Thumb Code   332  dmul.o(x$fpl$dmul)
    __fpl_dnaninf                            0x08009289   Thumb Code   156  dnaninf.o(x$fpl$dnaninf)
    __fpl_dretinf                            0x08009325   Thumb Code    12  dretinf.o(x$fpl$dretinf)
    __aeabi_cdrcmple                         0x08009331   Thumb Code     0  drleqf.o(x$fpl$drleqf)
    _drcmple                                 0x08009331   Thumb Code   108  drleqf.o(x$fpl$drleqf)
    __aeabi_drsub                            0x0800939d   Thumb Code     0  daddsub_clz.o(x$fpl$drsb)
    _drsb                                    0x0800939d   Thumb Code    22  daddsub_clz.o(x$fpl$drsb)
    __aeabi_dsub                             0x080093b5   Thumb Code     0  daddsub_clz.o(x$fpl$dsub)
    _dsub                                    0x080093b5   Thumb Code   464  daddsub_clz.o(x$fpl$dsub)
    __aeabi_f2d                              0x08009589   Thumb Code     0  f2d.o(x$fpl$f2d)
    _f2d                                     0x08009589   Thumb Code    86  f2d.o(x$fpl$f2d)
    __fpl_fnaninf                            0x080095df   Thumb Code   140  fnaninf.o(x$fpl$fnaninf)
    _fp_init                                 0x0800966b   Thumb Code    10  fpinit.o(x$fpl$fpinit)
    __fplib_config_fpu_vfp                   0x08009673   Thumb Code     0  fpinit.o(x$fpl$fpinit)
    __fplib_config_pureend_doubles           0x08009673   Thumb Code     0  fpinit.o(x$fpl$fpinit)
    __fpl_fretinf                            0x08009675   Thumb Code    10  fretinf.o(x$fpl$fretinf)
    __ieee_status                            0x0800967f   Thumb Code     6  istatus.o(x$fpl$ieeestatus)
    _printf_fp_dec                           0x08009685   Thumb Code     4  printf1.o(x$fpl$printf1)
    _printf_fp_hex                           0x08009689   Thumb Code     4  printf2.o(x$fpl$printf2)
    __fpl_return_NaN                         0x0800968d   Thumb Code   100  retnan.o(x$fpl$retnan)
    __ARM_scalbn                             0x080096f1   Thumb Code    92  scalbn.o(x$fpl$scalbn)
    _scanf_real                              0x0800974d   Thumb Code     4  scanf1.o(x$fpl$scanf1)
    _scanf_hex_real                          0x08009751   Thumb Code     4  scanf2.o(x$fpl$scanf2)
    _scanf_infnan                            0x08009755   Thumb Code     4  scanf2.o(x$fpl$scanf2)
    __fpl_cmpreturn                          0x08009759   Thumb Code    48  trapv.o(x$fpl$trapveneer)
    Font_1608                                0x08009788   Data        6080  fonts.o(.constdata)
    __I$use$fp                               0x08009788   Number         0  usenofp.o(x$fpl$usenofp)
    Font_1608x                               0x0800af48   Data        6080  fonts.o(.constdata)
    Font_3216                                0x0800c708   Data        6080  fonts.o(.constdata)
    Font_2412                                0x0800dec8   Data       12480  fonts.o(.constdata)
    asc2_1608                                0x08010f88   Data        1520  fonts.o(.constdata)
    asc2_2412                                0x08011578   Data        3420  fonts.o(.constdata)
    asc2_3216                                0x080122d4   Data        6080  fonts.o(.constdata)
    Region$$Table$$Base                      0x08013ce4   Number         0  anon$$obj.o(Region$$Table)
    Region$$Table$$Limit                     0x08013d04   Number         0  anon$$obj.o(Region$$Table)
    __aeabi_HUGE_VAL                         0x08013d04   Data           0  fpconst.o(c$$dinf)
    __aeabi_HUGE_VALL                        0x08013d04   Data           0  fpconst.o(c$$dinf)
    __aeabi_INFINITY                         0x08013d04   Data           0  fpconst.o(c$$dinf)
    __dInf                                   0x08013d04   Data           0  fpconst.o(c$$dinf)
    __huge_val                               0x08013d04   Data           0  fpconst.o(c$$dinf)
    __dbl_max                                0x08013d0c   Data           0  fpconst.o(c$$dmax)
    __ctype                                  0x08013d3d   Data           0  lc_ctype_c.o(locale$$data)
    mem3base                                 0x10000000   Data       61440  os_malloc.o(.ARM.__AT_0x10000000)
    mem3mapbase                              0x1000f000   Data        3840  os_malloc.o(.ARM.__AT_0x1000F000)
    SetChoose                                0x20000008   Data           1  app_adf4351.o(.data)
    ADF4351_Sweep                            0x20000009   Data           1  app_adf4351.o(.data)
    Sweep_Time                               0x2000000a   Data           2  app_adf4351.o(.data)
    Wave_Vol                                 0x2000000c   Data           2  app_adf4351.o(.data)
    Data                                     0x20000010   Data           8  app_adf4351.o(.data)
    Out_Freq                                 0x20000018   Data           8  app_adf4351.o(.data)
    Step_Freq                                0x20000020   Data           8  app_adf4351.o(.data)
    Start_Freq                               0x20000028   Data           8  app_adf4351.o(.data)
    Stop_Freq                                0x20000030   Data           8  app_adf4351.o(.data)
    Divisor                                  0x20000038   Data           8  app_adf4351.o(.data)
    CPU_ExceptStkBase                        0x20000054   Data           4  os_cpu.o(.data)
    p_TCB_Cur                                0x20000058   Data           4  os_cpu.o(.data)
    p_TCBHightRdy                            0x2000005c   Data           4  os_cpu.o(.data)
    OS_PrioCur                               0x20000060   Data           1  os_cpu.o(.data)
    OS_PrioHighRdy                           0x20000061   Data           1  os_cpu.o(.data)
    OSRdyTbl                                 0x20000064   Data           4  os_cpu.o(.data)
    fac_ms                                   0x20000068   Data           4  os_cpu.o(.data)
    fac_us                                   0x2000006c   Data           4  os_cpu.o(.data)
    OS_Running                               0x20000070   Data           1  os_cpu.o(.data)
    Sched_flag                               0x20000071   Data           1  os_cpu.o(.data)
    __stdout                                 0x20000074   Data           4  usart.o(.data)
    USART_RX_STA                             0x20000078   Data           2  usart.o(.data)
    start_x                                  0x2000007e   Data           2  drive_touchkey.o(.data)
    start_y                                  0x20000080   Data           2  drive_touchkey.o(.data)
    shift_x                                  0x20000082   Data           2  drive_touchkey.o(.data)
    shift_y                                  0x20000084   Data           2  drive_touchkey.o(.data)
    Font16x08                                0x2000008c   Data           8  fonts.o(.data)
    Font24x12                                0x20000094   Data           8  fonts.o(.data)
    Font16x08x                               0x2000009c   Data           8  fonts.o(.data)
    Font32x16                                0x200000a4   Data           8  fonts.o(.data)
    TextColor                                0x200000b0   Data           2  tft_lcd.o(.data)
    BackColor                                0x200000b2   Data           2  tft_lcd.o(.data)
    W25Q64_TYPE                              0x200000b4   Data           2  w25q64.o(.data)
    SystemCoreClock                          0x200000c8   Data           4  system_stm32f4xx.o(.data)
    AHBPrescTable                            0x200000cc   Data          16  system_stm32f4xx.o(.data)
    TouchStruct                              0x200000dc   Data          14  app_touch.o(.bss)
    Key                                      0x200000ea   Data          18  app_key.o(.bss)
    Pid_data                                 0x200000fc   Data          60  app_switch.o(.bss)
    GridData                                 0x20000138   Data        3276  app_freqana.o(.bss)
    SignalData                               0x20000e04   Data       18600  app_freqana.o(.bss)
    TASK_0_STK                               0x200056ac   Data         256  main.o(.bss)
    TASK_1_STK                               0x200057ac   Data         512  main.o(.bss)
    TASK_2_STK                               0x200059ac   Data         512  main.o(.bss)
    TASK_3_STK                               0x20005bac   Data        1024  main.o(.bss)
    TASK_4_STK                               0x20005fac   Data       16384  main.o(.bss)
    TASK_5_STK                               0x20009fac   Data        1024  main.o(.bss)
    TASK_6_STK                               0x2000a3ac   Data       64000  main.o(.bss)
    EXTR_STK                                 0x20019dac   Data         336  main.o(.bss)
    CPU_ExceptStk                            0x20019efc   Data         512  os_cpu.o(.bss)
    IDLE_STK                                 0x2001a0fc   Data         256  os_cpu.o(.bss)
    TCB_Task                                 0x2001a1fc   Data         384  os_cpu.o(.bss)
    USART_RX_BUF                             0x2001a37c   Data         200  usart.o(.bss)
    communicationData                        0x2001a46c   Data        2097  drive_communication.o(.bss)
    ftinfo                                   0x2001ac9d   Data          33  fontupd.o(.bss)
    __libspace_start                         0x2001acc0   Data          96  libspace.o(.bss)
    __temporary_stack_top$libspace           0x2001ad20   Data           0  libspace.o(.bss)
    mem2base                                 0x68000000   Data       983040  os_malloc.o(.ARM.__AT_0x68000000)
    mem2mapbase                              0x680f0000   Data       61440  os_malloc.o(.ARM.__AT_0x680F0000)



==============================================================================

Memory Map of the image

  Image Entry point : 0x08000189

  Load Region LR_IROM1 (Base: 0x08000000, Size: 0x00013f1c, Max: 0x00100000, ABSOLUTE)

    Execution Region ER_IROM1 (Exec base: 0x08000000, Load base: 0x08000000, Size: 0x00013e40, Max: 0x00100000, ABSOLUTE)

    Exec Addr    Load Addr    Size         Type   Attr      Idx    E Section Name        Object

    0x08000000   0x08000000   0x00000188   Data   RO         5424    RESET               startup_stm32f40_41xxx.o
    0x08000188   0x08000188   0x00000008   Code   RO         5483  * !!!main             c_w.l(__main.o)
    0x08000190   0x08000190   0x00000034   Code   RO         5949    !!!scatter          c_w.l(__scatter.o)
    0x080001c4   0x080001c4   0x0000001a   Code   RO         5951    !!handler_copy      c_w.l(__scatter_copy.o)
    0x080001de   0x080001de   0x00000002   PAD
    0x080001e0   0x080001e0   0x0000001c   Code   RO         5953    !!handler_zi        c_w.l(__scatter_zi.o)
    0x080001fc   0x080001fc   0x00000000   Code   RO         5474    .ARM.Collect$$_printf_percent$$00000000  c_w.l(_printf_percent.o)
    0x080001fc   0x080001fc   0x00000006   Code   RO         5470    .ARM.Collect$$_printf_percent$$00000003  c_w.l(_printf_f.o)
    0x08000202   0x08000202   0x00000006   Code   RO         5471    .ARM.Collect$$_printf_percent$$00000004  c_w.l(_printf_e.o)
    0x08000208   0x08000208   0x00000006   Code   RO         5472    .ARM.Collect$$_printf_percent$$00000005  c_w.l(_printf_g.o)
    0x0800020e   0x0800020e   0x00000006   Code   RO         5473    .ARM.Collect$$_printf_percent$$00000006  c_w.l(_printf_a.o)
    0x08000214   0x08000214   0x00000006   Code   RO         5469    .ARM.Collect$$_printf_percent$$00000014  c_w.l(_printf_s.o)
    0x0800021a   0x0800021a   0x00000004   Code   RO         5599    .ARM.Collect$$_printf_percent$$00000017  c_w.l(_printf_percent_end.o)
    0x0800021e   0x0800021e   0x00000002   Code   RO         5766    .ARM.Collect$$libinit$$00000000  c_w.l(libinit.o)
    0x08000220   0x08000220   0x00000004   Code   RO         5767    .ARM.Collect$$libinit$$00000001  c_w.l(libinit2.o)
    0x08000224   0x08000224   0x00000000   Code   RO         5770    .ARM.Collect$$libinit$$00000004  c_w.l(libinit2.o)
    0x08000224   0x08000224   0x00000000   Code   RO         5773    .ARM.Collect$$libinit$$0000000A  c_w.l(libinit2.o)
    0x08000224   0x08000224   0x00000000   Code   RO         5775    .ARM.Collect$$libinit$$0000000C  c_w.l(libinit2.o)
    0x08000224   0x08000224   0x00000000   Code   RO         5777    .ARM.Collect$$libinit$$0000000E  c_w.l(libinit2.o)
    0x08000224   0x08000224   0x00000006   Code   RO         5778    .ARM.Collect$$libinit$$0000000F  c_w.l(libinit2.o)
    0x0800022a   0x0800022a   0x00000000   Code   RO         5780    .ARM.Collect$$libinit$$00000011  c_w.l(libinit2.o)
    0x0800022a   0x0800022a   0x0000000c   Code   RO         5781    .ARM.Collect$$libinit$$00000012  c_w.l(libinit2.o)
    0x08000236   0x08000236   0x00000000   Code   RO         5782    .ARM.Collect$$libinit$$00000013  c_w.l(libinit2.o)
    0x08000236   0x08000236   0x00000000   Code   RO         5784    .ARM.Collect$$libinit$$00000015  c_w.l(libinit2.o)
    0x08000236   0x08000236   0x0000000a   Code   RO         5785    .ARM.Collect$$libinit$$00000016  c_w.l(libinit2.o)
    0x08000240   0x08000240   0x00000000   Code   RO         5786    .ARM.Collect$$libinit$$00000017  c_w.l(libinit2.o)
    0x08000240   0x08000240   0x00000000   Code   RO         5788    .ARM.Collect$$libinit$$00000019  c_w.l(libinit2.o)
    0x08000240   0x08000240   0x00000000   Code   RO         5790    .ARM.Collect$$libinit$$0000001B  c_w.l(libinit2.o)
    0x08000240   0x08000240   0x00000000   Code   RO         5792    .ARM.Collect$$libinit$$0000001D  c_w.l(libinit2.o)
    0x08000240   0x08000240   0x00000000   Code   RO         5794    .ARM.Collect$$libinit$$0000001F  c_w.l(libinit2.o)
    0x08000240   0x08000240   0x00000000   Code   RO         5796    .ARM.Collect$$libinit$$00000021  c_w.l(libinit2.o)
    0x08000240   0x08000240   0x00000000   Code   RO         5798    .ARM.Collect$$libinit$$00000023  c_w.l(libinit2.o)
    0x08000240   0x08000240   0x00000000   Code   RO         5800    .ARM.Collect$$libinit$$00000025  c_w.l(libinit2.o)
    0x08000240   0x08000240   0x00000000   Code   RO         5804    .ARM.Collect$$libinit$$0000002C  c_w.l(libinit2.o)
    0x08000240   0x08000240   0x00000000   Code   RO         5806    .ARM.Collect$$libinit$$0000002E  c_w.l(libinit2.o)
    0x08000240   0x08000240   0x00000000   Code   RO         5808    .ARM.Collect$$libinit$$00000030  c_w.l(libinit2.o)
    0x08000240   0x08000240   0x00000000   Code   RO         5810    .ARM.Collect$$libinit$$00000032  c_w.l(libinit2.o)
    0x08000240   0x08000240   0x00000002   Code   RO         5811    .ARM.Collect$$libinit$$00000033  c_w.l(libinit2.o)
    0x08000242   0x08000242   0x00000002   Code   RO         5888    .ARM.Collect$$libshutdown$$00000000  c_w.l(libshutdown.o)
    0x08000244   0x08000244   0x00000000   Code   RO         5923    .ARM.Collect$$libshutdown$$00000002  c_w.l(libshutdown2.o)
    0x08000244   0x08000244   0x00000000   Code   RO         5925    .ARM.Collect$$libshutdown$$00000004  c_w.l(libshutdown2.o)
    0x08000244   0x08000244   0x00000000   Code   RO         5928    .ARM.Collect$$libshutdown$$00000007  c_w.l(libshutdown2.o)
    0x08000244   0x08000244   0x00000000   Code   RO         5931    .ARM.Collect$$libshutdown$$0000000A  c_w.l(libshutdown2.o)
    0x08000244   0x08000244   0x00000000   Code   RO         5933    .ARM.Collect$$libshutdown$$0000000C  c_w.l(libshutdown2.o)
    0x08000244   0x08000244   0x00000000   Code   RO         5936    .ARM.Collect$$libshutdown$$0000000F  c_w.l(libshutdown2.o)
    0x08000244   0x08000244   0x00000002   Code   RO         5937    .ARM.Collect$$libshutdown$$00000010  c_w.l(libshutdown2.o)
    0x08000246   0x08000246   0x00000000   Code   RO         5579    .ARM.Collect$$rtentry$$00000000  c_w.l(__rtentry.o)
    0x08000246   0x08000246   0x00000000   Code   RO         5660    .ARM.Collect$$rtentry$$00000002  c_w.l(__rtentry2.o)
    0x08000246   0x08000246   0x00000006   Code   RO         5672    .ARM.Collect$$rtentry$$00000004  c_w.l(__rtentry4.o)
    0x0800024c   0x0800024c   0x00000000   Code   RO         5662    .ARM.Collect$$rtentry$$00000009  c_w.l(__rtentry2.o)
    0x0800024c   0x0800024c   0x00000004   Code   RO         5663    .ARM.Collect$$rtentry$$0000000A  c_w.l(__rtentry2.o)
    0x08000250   0x08000250   0x00000000   Code   RO         5665    .ARM.Collect$$rtentry$$0000000C  c_w.l(__rtentry2.o)
    0x08000250   0x08000250   0x00000008   Code   RO         5666    .ARM.Collect$$rtentry$$0000000D  c_w.l(__rtentry2.o)
    0x08000258   0x08000258   0x00000002   Code   RO         5812    .ARM.Collect$$rtexit$$00000000  c_w.l(rtexit.o)
    0x0800025a   0x0800025a   0x00000000   Code   RO         5846    .ARM.Collect$$rtexit$$00000002  c_w.l(rtexit2.o)
    0x0800025a   0x0800025a   0x00000004   Code   RO         5847    .ARM.Collect$$rtexit$$00000003  c_w.l(rtexit2.o)
    0x0800025e   0x0800025e   0x00000006   Code   RO         5848    .ARM.Collect$$rtexit$$00000004  c_w.l(rtexit2.o)
    0x08000264   0x08000264   0x0000003c   Code   RO         5425    .text               startup_stm32f40_41xxx.o
    0x080002a0   0x080002a0   0x00000002   Code   RO         5431    .text               c_w.l(use_no_semi_2.o)
    0x080002a2   0x080002a2   0x00000002   PAD
    0x080002a4   0x080002a4   0x00000018   Code   RO         5439    .text               c_w.l(noretval__2printf.o)
    0x080002bc   0x080002bc   0x00000028   Code   RO         5441    .text               c_w.l(noretval__2sprintf.o)
    0x080002e4   0x080002e4   0x0000004e   Code   RO         5445    .text               c_w.l(_printf_pad.o)
    0x08000332   0x08000332   0x00000052   Code   RO         5447    .text               c_w.l(_printf_str.o)
    0x08000384   0x08000384   0x00000188   Code   RO         5466    .text               c_w.l(__printf_flags_ss_wp.o)
    0x0800050c   0x0800050c   0x00000024   Code   RO         5475    .text               c_w.l(strstr.o)
    0x08000530   0x08000530   0x00000064   Code   RO         5477    .text               c_w.l(rt_memcpy_w.o)
    0x08000594   0x08000594   0x0000004e   Code   RO         5479    .text               c_w.l(rt_memclr_w.o)
    0x080005e2   0x080005e2   0x00000006   Code   RO         5481    .text               c_w.l(heapauxi.o)
    0x080005e8   0x080005e8   0x00000002   Code   RO         5577    .text               c_w.l(use_no_semi.o)
    0x080005ea   0x080005ea   0x00000016   Code   RO         5584    .text               c_w.l(_rserrno.o)
    0x08000600   0x08000600   0x0000041e   Code   RO         5586    .text               c_w.l(_printf_fp_dec.o)
    0x08000a1e   0x08000a1e   0x00000002   PAD
    0x08000a20   0x08000a20   0x000002fc   Code   RO         5588    .text               c_w.l(_printf_fp_hex.o)
    0x08000d1c   0x08000d1c   0x00000030   Code   RO         5591    .text               c_w.l(_printf_char_common.o)
    0x08000d4c   0x08000d4c   0x0000000a   Code   RO         5593    .text               c_w.l(_sputc.o)
    0x08000d56   0x08000d56   0x0000002c   Code   RO         5595    .text               c_w.l(_printf_char.o)
    0x08000d82   0x08000d82   0x00000002   PAD
    0x08000d84   0x08000d84   0x00000024   Code   RO         5597    .text               c_w.l(_printf_char_file.o)
    0x08000da8   0x08000da8   0x000000a4   Code   RO         5600    .text               c_w.l(strtod.o)
    0x08000e4c   0x08000e4c   0x00000008   Code   RO         5679    .text               c_w.l(rt_locale_intlibspace.o)
    0x08000e54   0x08000e54   0x00000008   Code   RO         5684    .text               c_w.l(rt_errno_addr_intlibspace.o)
    0x08000e5c   0x08000e5c   0x0000008a   Code   RO         5686    .text               c_w.l(lludiv10.o)
    0x08000ee6   0x08000ee6   0x00000012   Code   RO         5688    .text               c_w.l(isspace.o)
    0x08000ef8   0x08000ef8   0x00000080   Code   RO         5690    .text               c_w.l(_printf_fp_infnan.o)
    0x08000f78   0x08000f78   0x00000040   Code   RO         5694    .text               c_w.l(_sgetc.o)
    0x08000fb8   0x08000fb8   0x000000e4   Code   RO         5696    .text               c_w.l(bigflt0.o)
    0x0800109c   0x0800109c   0x00000008   Code   RO         5721    .text               c_w.l(ferror.o)
    0x080010a4   0x080010a4   0x00000008   Code   RO         5744    .text               c_w.l(libspace.o)
    0x080010ac   0x080010ac   0x0000004a   Code   RO         5747    .text               c_w.l(sys_stackheap_outer.o)
    0x080010f6   0x080010f6   0x00000002   PAD
    0x080010f8   0x080010f8   0x00000010   Code   RO         5749    .text               c_w.l(rt_ctype_table.o)
    0x08001108   0x08001108   0x000004f8   Code   RO         5751    .text               c_w.l(scanf_fp.o)
    0x08001600   0x08001600   0x00000012   Code   RO         5753    .text               c_w.l(exit.o)
    0x08001612   0x08001612   0x00000002   PAD
    0x08001614   0x08001614   0x00000080   Code   RO         5759    .text               c_w.l(strcmpv7m.o)
    0x08001694   0x08001694   0x00000320   Code   RO         5852    .text               c_w.l(scanf_hexfp.o)
    0x080019b4   0x080019b4   0x00000134   Code   RO         5854    .text               c_w.l(scanf_infnan.o)
    0x08001ae8   0x08001ae8   0x00000026   Code   RO         5876    .text               c_w.l(llshl.o)
    0x08001b0e   0x08001b0e   0x0000001c   Code   RO         5878    .text               c_w.l(_chval.o)
    0x08001b2a   0x08001b2a   0x0000003e   Code   RO         5699    CL$$btod_d2e        c_w.l(btod.o)
    0x08001b68   0x08001b68   0x00000046   Code   RO         5701    CL$$btod_d2e_denorm_low  c_w.l(btod.o)
    0x08001bae   0x08001bae   0x00000060   Code   RO         5700    CL$$btod_d2e_norm_op1  c_w.l(btod.o)
    0x08001c0e   0x08001c0e   0x00000338   Code   RO         5709    CL$$btod_div_common  c_w.l(btod.o)
    0x08001f46   0x08001f46   0x00000002   PAD
    0x08001f48   0x08001f48   0x00000084   Code   RO         5707    CL$$btod_e2d        c_w.l(btod.o)
    0x08001fcc   0x08001fcc   0x000000dc   Code   RO         5706    CL$$btod_e2e        c_w.l(btod.o)
    0x080020a8   0x080020a8   0x0000002a   Code   RO         5703    CL$$btod_ediv       c_w.l(btod.o)
    0x080020d2   0x080020d2   0x0000002a   Code   RO         5705    CL$$btod_edivd      c_w.l(btod.o)
    0x080020fc   0x080020fc   0x0000002a   Code   RO         5702    CL$$btod_emul       c_w.l(btod.o)
    0x08002126   0x08002126   0x0000002a   Code   RO         5704    CL$$btod_emuld      c_w.l(btod.o)
    0x08002150   0x08002150   0x00000244   Code   RO         5708    CL$$btod_mult_common  c_w.l(btod.o)
    0x08002394   0x08002394   0x00000090   Code   RO          938    CODE                core.o
    0x08002424   0x08002424   0x00000080   Code   RO         1106    i.ADC1_Init         drive_adc.o
    0x080024a4   0x080024a4   0x00000016   Code   RO         2492    i.ADC_Cmd           stm32f4xx_adc.o
    0x080024ba   0x080024ba   0x00000002   PAD
    0x080024bc   0x080024bc   0x00000030   Code   RO         2493    i.ADC_CommonInit    stm32f4xx_adc.o
    0x080024ec   0x080024ec   0x00000008   Code   RO         2504    i.ADC_GetConversionValue  stm32f4xx_adc.o
    0x080024f4   0x080024f4   0x00000012   Code   RO         2505    i.ADC_GetFlagStatus  stm32f4xx_adc.o
    0x08002506   0x08002506   0x00000002   PAD
    0x08002508   0x08002508   0x00000054   Code   RO         2512    i.ADC_Init          stm32f4xx_adc.o
    0x0800255c   0x0800255c   0x000000b8   Code   RO         2517    i.ADC_RegularChannelConfig  stm32f4xx_adc.o
    0x08002614   0x08002614   0x00000050   Code   RO         1109    i.ADC_Result_Get    drive_adc.o
    0x08002664   0x08002664   0x0000000a   Code   RO         2519    i.ADC_SoftwareStartConv  stm32f4xx_adc.o
    0x0800266e   0x0800266e   0x000000c8   Code   RO         1665    i.ADF4351Init       drive_adf4351.o
    0x08002736   0x08002736   0x00000002   PAD
    0x08002738   0x08002738   0x00000204   Code   RO         1666    i.ADF4351WriteFreq  drive_adf4351.o
    0x0800293c   0x0800293c   0x000000e4   Code   RO          446    i.ADF4351_Sweep_main  app_adf4351_sweep.o
    0x08002a20   0x08002a20   0x00000038   Code   RO          364    i.ADF4351_main      app_adf4351.o
    0x08002a58   0x08002a58   0x00000030   Code   RO         1669    i.ADF_Output_GPIOInit  drive_adf4351.o
    0x08002a88   0x08002a88   0x00000078   Code   RO         1832    i.ADS1256ReadData   drive_ads1256.o
    0x08002b00   0x08002b00   0x00000050   Code   RO         1833    i.ADS1256WREG       drive_ads1256.o
    0x08002b50   0x08002b50   0x00000098   Code   RO         1571    i.ADS_Read_AD       drive_touch.o
    0x08002be8   0x08002be8   0x0000007c   Code   RO         1572    i.ADS_Read_XY       drive_touch.o
    0x08002c64   0x08002c64   0x00000054   Code   RO         1573    i.ADS_Write_Byte    drive_touch.o
    0x08002cb8   0x08002cb8   0x0000079c   Code   RO          503    i.AF_Multi_Measuring  app_freqana.o
    0x08003454   0x08003454   0x00000004   Code   RO         5302    i.BusFault_Handler  stm32f4xx_it.o
    0x08003458   0x08003458   0x00000050   Code   RO         1625    i.Clear_Show        drive_touchkey.o
    0x080034a8   0x080034a8   0x00000028   Code   RO         2780    i.DAC_Cmd           stm32f4xx_dac.o
    0x080034d0   0x080034d0   0x00000034   Code   RO         2788    i.DAC_Init          stm32f4xx_dac.o
    0x08003504   0x08003504   0x00000020   Code   RO         2790    i.DAC_SetChannel2Data  stm32f4xx_dac.o
    0x08003524   0x08003524   0x00000058   Code   RO         1222    i.Dac2_Init         drive_dac.o
    0x0800357c   0x0800357c   0x0000000e   Code   RO         1223    i.Dac2_Set_Vol      drive_dac.o
    0x0800358a   0x0800358a   0x00000002   Code   RO         5303    i.DebugMon_Handler  stm32f4xx_it.o
    0x0800358c   0x0800358c   0x00000010   Code   RO         1574    i.Delay             drive_touch.o
    0x0800359c   0x0800359c   0x00000348   Code   RO          702    i.Draw_Graph        os_ui.o
    0x080038e4   0x080038e4   0x000003de   Code   RO          703    i.Draw_Grid         os_ui.o
    0x08003cc2   0x08003cc2   0x00000002   PAD
    0x08003cc4   0x08003cc4   0x000000b4   Code   RO         1902    i.ESP8266_Client_Connect_Server  drive_communication.o
    0x08003d78   0x08003d78   0x0000000a   Code   RO         1335    i.EXTI0_IRQHandler  drive_interrupt.o
    0x08003d82   0x08003d82   0x00000016   Code   RO         1336    i.EXTI15_10_IRQHandler  drive_interrupt.o
    0x08003d98   0x08003d98   0x00000012   Code   RO         1337    i.EXTI1_IRQHandler  drive_interrupt.o
    0x08003daa   0x08003daa   0x00000012   Code   RO         1338    i.EXTI2_IRQHandler  drive_interrupt.o
    0x08003dbc   0x08003dbc   0x00000012   Code   RO         1339    i.EXTI3_IRQHandler  drive_interrupt.o
    0x08003dce   0x08003dce   0x00000012   Code   RO         1340    i.EXTI4_IRQHandler  drive_interrupt.o
    0x08003de0   0x08003de0   0x00000012   Code   RO         1341    i.EXTI9_5_IRQHandler  drive_interrupt.o
    0x08003df2   0x08003df2   0x00000002   PAD
    0x08003df4   0x08003df4   0x0000000c   Code   RO         3277    i.EXTI_ClearITPendingBit  stm32f4xx_exti.o
    0x08003e00   0x08003e00   0x00000018   Code   RO         3281    i.EXTI_GetITStatus  stm32f4xx_exti.o
    0x08003e18   0x08003e18   0x00000034   Code   RO         3349    i.FSMC_NORSRAMCmd   stm32f4xx_fsmc.o
    0x08003e4c   0x08003e4c   0x000000e6   Code   RO         3351    i.FSMC_NORSRAMInit  stm32f4xx_fsmc.o
    0x08003f32   0x08003f32   0x00000002   PAD
    0x08003f34   0x08003f34   0x000000b4   Code   RO          504    i.FreqAna_main      app_freqana.o
    0x08003fe8   0x08003fe8   0x000000a4   Code   RO         1575    i.GPIO_Configuration  drive_touch.o
    0x0800408c   0x0800408c   0x00000090   Code   RO         3470    i.GPIO_Init         stm32f4xx_gpio.o
    0x0800411c   0x0800411c   0x00000040   Code   RO         1173    i.GPIO_Key_Init     drive_gpio.o
    0x0800415c   0x0800415c   0x00000046   Code   RO         3471    i.GPIO_PinAFConfig  stm32f4xx_gpio.o
    0x080041a2   0x080041a2   0x00000004   Code   RO         3477    i.GPIO_ResetBits    stm32f4xx_gpio.o
    0x080041a6   0x080041a6   0x00000004   Code   RO         3478    i.GPIO_SetBits      stm32f4xx_gpio.o
    0x080041aa   0x080041aa   0x00000002   PAD
    0x080041ac   0x080041ac   0x00000068   Code   RO         1835    i.Get_Val           drive_ads1256.o
    0x08004214   0x08004214   0x00000074   Code   RO          505    i.GridData_Init     app_freqana.o
    0x08004288   0x08004288   0x00000004   Code   RO         5304    i.HardFault_Handler  stm32f4xx_it.o
    0x0800428c   0x0800428c   0x000000b4   Code   RO          404    i.Key_Now_Get       app_key.o
    0x08004340   0x08004340   0x000001d0   Code   RO          405    i.Key_main          app_key.o
    0x08004510   0x08004510   0x0000002c   Code   RO         2131    i.LCD_Clear         tft_lcd.o
    0x0800453c   0x0800453c   0x00000154   Code   RO         2132    i.LCD_CtrlLinesConfig  tft_lcd.o
    0x08004690   0x08004690   0x00000040   Code   RO         2145    i.LCD_DrawRectS     tft_lcd.o
    0x080046d0   0x080046d0   0x0000011e   Code   RO         2146    i.LCD_DrawuniLine   tft_lcd.o
    0x080047ee   0x080047ee   0x0000005e   Code   RO         2147    i.LCD_FSMCConfig    tft_lcd.o
    0x0800484c   0x0800484c   0x00000008   Code   RO         2348    i.LCD_REG_Select    tft_lcd.o
    0x08004854   0x08004854   0x00000044   Code   RO         2153    i.LCD_SetCursor     tft_lcd.o
    0x08004898   0x08004898   0x0000004c   Code   RO         2154    i.LCD_SetDisplayWindow  tft_lcd.o
    0x080048e4   0x080048e4   0x00000008   Code   RO         2343    i.LCD_WriteRAM      tft_lcd.o
    0x080048ec   0x080048ec   0x0000000a   Code   RO         2353    i.LCD_WriteRAM_Prepare  tft_lcd.o
    0x080048f6   0x080048f6   0x00000002   PAD
    0x080048f8   0x080048f8   0x000000a4   Code   RO          330    i.LED_Control       app_led.o
    0x0800499c   0x0800499c   0x00000050   Code   RO         1175    i.LED_Init          drive_gpio.o
    0x080049ec   0x080049ec   0x0000002c   Code   RO          331    i.LED_main          app_led.o
    0x08004a18   0x08004a18   0x00000004   Code   RO         5305    i.MemManage_Handler  stm32f4xx_it.o
    0x08004a1c   0x08004a1c   0x00000002   Code   RO         5306    i.NMI_Handler       stm32f4xx_it.o
    0x08004a1e   0x08004a1e   0x00000002   PAD
    0x08004a20   0x08004a20   0x00000078   Code   RO         4875    i.NVIC_Init         misc.o
    0x08004a98   0x08004a98   0x00000014   Code   RO          671    i.OSDelPrioRdy      os_cpu.o
    0x08004aac   0x08004aac   0x00000028   Code   RO          575    i.OSGetHighRdy      os_cpu.o
    0x08004ad4   0x08004ad4   0x00000014   Code   RO          666    i.OSSetPrioRdy      os_cpu.o
    0x08004ae8   0x08004ae8   0x00000074   Code   RO          576    i.OSTaskRecovery    os_cpu.o
    0x08004b5c   0x08004b5c   0x00000068   Code   RO          577    i.OSTaskSuspend     os_cpu.o
    0x08004bc4   0x08004bc4   0x0000003c   Code   RO          578    i.OSTimeDly         os_cpu.o
    0x08004c00   0x08004c00   0x00000120   Code   RO          705    i.OS_Char_Show      os_ui.o
    0x08004d20   0x08004d20   0x000000c8   Code   RO          707    i.OS_Font_Show      os_ui.o
    0x08004de8   0x08004de8   0x000000e0   Code   RO          708    i.OS_HzMat_Get      os_ui.o
    0x08004ec8   0x08004ec8   0x00000008   Code   RO          579    i.OS_IDLE_Task      os_cpu.o
    0x08004ed0   0x08004ed0   0x00000030   Code   RO          546    i.OS_Init           main.o
    0x08004f00   0x08004f00   0x0000000e   Code   RO          709    i.OS_LCD_Clear      os_ui.o
    0x08004f0e   0x08004f0e   0x00000002   PAD
    0x08004f10   0x08004f10   0x00000054   Code   RO          710    i.OS_LCD_Init       os_ui.o
    0x08004f64   0x08004f64   0x000000c6   Code   RO          711    i.OS_Line_Draw      os_ui.o
    0x0800502a   0x0800502a   0x00000002   PAD
    0x0800502c   0x0800502c   0x00000060   Code   RO          712    i.OS_Num_Show       os_ui.o
    0x0800508c   0x0800508c   0x0000001e   Code   RO          714    i.OS_Point_Draw     os_ui.o
    0x080050aa   0x080050aa   0x00000002   PAD
    0x080050ac   0x080050ac   0x00000098   Code   RO          715    i.OS_Rect_Draw      os_ui.o
    0x08005144   0x08005144   0x00000058   Code   RO          580    i.OS_Sched          os_cpu.o
    0x0800519c   0x0800519c   0x0000001c   Code   RO          581    i.OS_SchedLock      os_cpu.o
    0x080051b8   0x080051b8   0x0000001c   Code   RO          582    i.OS_SchedUnlock    os_cpu.o
    0x080051d4   0x080051d4   0x00000068   Code   RO          583    i.OS_Start          os_cpu.o
    0x0800523c   0x0800523c   0x0000007c   Code   RO          716    i.OS_String_Show    os_ui.o
    0x080052b8   0x080052b8   0x00000064   Code   RO          470    i.PID_Init          app_switch.o
    0x0800531c   0x0800531c   0x00000020   Code   RO         2160    i.PutPixel          tft_lcd.o
    0x0800533c   0x0800533c   0x00000020   Code   RO         3791    i.RCC_AHB1PeriphClockCmd  stm32f4xx_rcc.o
    0x0800535c   0x0800535c   0x00000020   Code   RO         3797    i.RCC_AHB3PeriphClockCmd  stm32f4xx_rcc.o
    0x0800537c   0x0800537c   0x00000020   Code   RO         3800    i.RCC_APB1PeriphClockCmd  stm32f4xx_rcc.o
    0x0800539c   0x0800539c   0x00000020   Code   RO         3803    i.RCC_APB2PeriphClockCmd  stm32f4xx_rcc.o
    0x080053bc   0x080053bc   0x00000020   Code   RO         3805    i.RCC_APB2PeriphResetCmd  stm32f4xx_rcc.o
    0x080053dc   0x080053dc   0x000000e8   Code   RO         3812    i.RCC_GetClocksFreq  stm32f4xx_rcc.o
    0x080054c4   0x080054c4   0x000000d4   Code   RO         2061    i.SPI1_Init         spi.o
    0x08005598   0x08005598   0x00000038   Code   RO         2062    i.SPI1_ReadWriteByte  spi.o
    0x080055d0   0x080055d0   0x00000028   Code   RO         2063    i.SPI1_SetSpeed     spi.o
    0x080055f8   0x080055f8   0x00000018   Code   RO         4925    i.SPI_Cmd           stm32f4xx_spi.o
    0x08005610   0x08005610   0x00000012   Code   RO         4933    i.SPI_I2S_GetFlagStatus  stm32f4xx_spi.o
    0x08005622   0x08005622   0x00000006   Code   RO         4936    i.SPI_I2S_ReceiveData  stm32f4xx_spi.o
    0x08005628   0x08005628   0x00000004   Code   RO         4937    i.SPI_I2S_SendData  stm32f4xx_spi.o
    0x0800562c   0x0800562c   0x0000003c   Code   RO         4938    i.SPI_Init          stm32f4xx_spi.o
    0x08005668   0x08005668   0x00000048   Code   RO         1838    i.SPI_ReadByte      drive_ads1256.o
    0x080056b0   0x080056b0   0x00000054   Code   RO         1839    i.SPI_WriteByte     drive_ads1256.o
    0x08005704   0x08005704   0x00000002   Code   RO         5307    i.SVC_Handler       stm32f4xx_it.o
    0x08005706   0x08005706   0x00000002   PAD
    0x08005708   0x08005708   0x000000ec   Code   RO         5387    i.SetSysClock       system_stm32f4xx.o
    0x080057f4   0x080057f4   0x00000348   Code   RO          722    i.Show_Label        os_ui.o
    0x08005b3c   0x08005b3c   0x00000304   Code   RO          365    i.Start_Meum        app_adf4351.o
    0x08005e40   0x08005e40   0x00000114   Code   RO          471    i.Switch_main       app_switch.o
    0x08005f54   0x08005f54   0x00000028   Code   RO         4879    i.SysTick_CLKSourceConfig  misc.o
    0x08005f7c   0x08005f7c   0x00000084   Code   RO          584    i.SysTick_Handler   os_cpu.o
    0x08006000   0x08006000   0x00000068   Code   RO         5389    i.SystemInit        system_stm32f4xx.o
    0x08006068   0x08006068   0x0000005c   Code   RO          585    i.System_init       os_cpu.o
    0x080060c4   0x080060c4   0x000001f0   Code   RO         2162    i.TFT_LCD_Init      tft_lcd.o
    0x080062b4   0x080062b4   0x0000001c   Code   RO         1342    i.TIM1_BRK_TIM9_IRQHandler  drive_interrupt.o
    0x080062d0   0x080062d0   0x0000001c   Code   RO         1343    i.TIM1_TRG_COM_TIM11_IRQHandler  drive_interrupt.o
    0x080062ec   0x080062ec   0x0000001c   Code   RO         1344    i.TIM1_UP_TIM10_IRQHandler  drive_interrupt.o
    0x08006308   0x08006308   0x00000016   Code   RO         1345    i.TIM2_IRQHandler   drive_interrupt.o
    0x0800631e   0x0800631e   0x00000002   PAD
    0x08006320   0x08006320   0x0000001c   Code   RO         1346    i.TIM3_IRQHandler   drive_interrupt.o
    0x0800633c   0x0800633c   0x00000028   Code   RO         1347    i.TIM4_IRQHandler   drive_interrupt.o
    0x08006364   0x08006364   0x00000030   Code   RO         1348    i.TIM5_IRQHandler   drive_interrupt.o
    0x08006394   0x08006394   0x0000001c   Code   RO         1349    i.TIM6_DAC_IRQHandler  drive_interrupt.o
    0x080063b0   0x080063b0   0x0000001c   Code   RO         1350    i.TIM7_IRQHandler   drive_interrupt.o
    0x080063cc   0x080063cc   0x0000001c   Code   RO         1351    i.TIM8_BRK_TIM12_IRQHandler  drive_interrupt.o
    0x080063e8   0x080063e8   0x0000001c   Code   RO         1352    i.TIM8_TRG_COM_TIM14_IRQHandler  drive_interrupt.o
    0x08006404   0x08006404   0x0000001c   Code   RO         1353    i.TIM8_UP_TIM13_IRQHandler  drive_interrupt.o
    0x08006420   0x08006420   0x00000006   Code   RO         4136    i.TIM_ClearITPendingBit  stm32f4xx_tim.o
    0x08006426   0x08006426   0x00000022   Code   RO         4162    i.TIM_GetITStatus   stm32f4xx_tim.o
    0x08006448   0x08006448   0x000001f0   Code   RO          586    i.Task_Create       os_cpu.o
    0x08006638   0x08006638   0x00000004   Code   RO          587    i.Task_End          os_cpu.o
    0x0800663c   0x0800663c   0x000002e4   Code   RO         1626    i.TouchKey_Draw     drive_touchkey.o
    0x08006920   0x08006920   0x00000560   Code   RO         1627    i.TouchKey_Scan     drive_touchkey.o
    0x08006e80   0x08006e80   0x000000ac   Code   RO         1576    i.TouchRead         drive_touch.o
    0x08006f2c   0x08006f2c   0x00000014   Code   RO            4    i.Touch_Clear       app_touch.o
    0x08006f40   0x08006f40   0x000004a6   Code   RO          366    i.Touch_Handle      app_adf4351.o
    0x080073e6   0x080073e6   0x00000008   Code   RO         1577    i.Touch_Init        drive_touch.o
    0x080073ee   0x080073ee   0x00000002   PAD
    0x080073f0   0x080073f0   0x00000060   Code   RO            5    i.Touch_Judge       app_touch.o
    0x08007450   0x08007450   0x00000090   Code   RO            6    i.Touch_main        app_touch.o
    0x080074e0   0x080074e0   0x000000d8   Code   RO         1011    i.USART1_IRQHandler  usart.o
    0x080075b8   0x080075b8   0x00000018   Code   RO         4691    i.USART_Cmd         stm32f4xx_usart.o
    0x080075d0   0x080075d0   0x0000001a   Code   RO         4694    i.USART_GetFlagStatus  stm32f4xx_usart.o
    0x080075ea   0x080075ea   0x00000054   Code   RO         4695    i.USART_GetITStatus  stm32f4xx_usart.o
    0x0800763e   0x0800763e   0x0000004a   Code   RO         4697    i.USART_ITConfig    stm32f4xx_usart.o
    0x08007688   0x08007688   0x000000d4   Code   RO         4698    i.USART_Init        stm32f4xx_usart.o
    0x0800775c   0x0800775c   0x0000000a   Code   RO         4705    i.USART_ReceiveData  stm32f4xx_usart.o
    0x08007766   0x08007766   0x00000008   Code   RO         4708    i.USART_SendData    stm32f4xx_usart.o
    0x0800776e   0x0800776e   0x00000004   Code   RO         5308    i.UsageFault_Handler  stm32f4xx_it.o
    0x08007772   0x08007772   0x00000002   PAD
    0x08007774   0x08007774   0x00000078   Code   RO         2377    i.W25Q64_Init       w25q64.o
    0x080077ec   0x080077ec   0x00000058   Code   RO         2379    i.W25Q64_Read       w25q64.o
    0x08007844   0x08007844   0x0000004c   Code   RO         2380    i.W25Q64_ReadID     w25q64.o
    0x08007890   0x08007890   0x0000002a   Code   RO         1671    i.WriteOneRegToADF4351  drive_adf4351.o
    0x080078ba   0x080078ba   0x00000002   PAD
    0x080078bc   0x080078bc   0x000000b8   Code   RO         1672    i.WriteToADF4351    drive_adf4351.o
    0x08007974   0x08007974   0x00000030   Code   RO         5740    i.__ARM_fpclassify  m_wm.l(fpclassify.o)
    0x080079a4   0x080079a4   0x00000026   Code   RO         5632    i.__ARM_fpclassifyf  m_wm.l(fpclassifyf.o)
    0x080079ca   0x080079ca   0x00000006   PAD
    0x080079d0   0x080079d0   0x000000f8   Code   RO         5837    i.__hardfp___mathlib_tofloat  m_wm.l(narrow.o)
    0x08007ac8   0x08007ac8   0x00000038   Code   RO         5531    i.__hardfp_atof     m_wm.l(atof.o)
    0x08007b00   0x08007b00   0x000000d0   Code   RO         5889    i.__hardfp_ldexp    m_wm.l(ldexp.o)
    0x08007bd0   0x08007bd0   0x00000180   Code   RO         5537    i.__hardfp_log10f   m_wm.l(log10f.o)
    0x08007d50   0x08007d50   0x00000664   Code   RO         5551    i.__hardfp_powf     m_wm.l(powf.o)
    0x080083b4   0x080083b4   0x00000004   PAD
    0x080083b8   0x080083b8   0x00000020   Code   RO         5622    i.__mathlib_dbl_overflow  m_wm.l(dunder.o)
    0x080083d8   0x080083d8   0x00000020   Code   RO         5624    i.__mathlib_dbl_underflow  m_wm.l(dunder.o)
    0x080083f8   0x080083f8   0x00000014   Code   RO         5634    i.__mathlib_flt_divzero  m_wm.l(funder.o)
    0x0800840c   0x0800840c   0x00000006   Code   RO         5635    i.__mathlib_flt_infnan  m_wm.l(funder.o)
    0x08008412   0x08008412   0x00000006   Code   RO         5636    i.__mathlib_flt_infnan2  m_wm.l(funder.o)
    0x08008418   0x08008418   0x00000010   Code   RO         5637    i.__mathlib_flt_invalid  m_wm.l(funder.o)
    0x08008428   0x08008428   0x00000010   Code   RO         5638    i.__mathlib_flt_overflow  m_wm.l(funder.o)
    0x08008438   0x08008438   0x00000010   Code   RO         5640    i.__mathlib_flt_underflow  m_wm.l(funder.o)
    0x08008448   0x08008448   0x00000012   Code   RO         5838    i.__mathlib_narrow  m_wm.l(narrow.o)
    0x0800845a   0x0800845a   0x00000014   Code   RO         5891    i.__support_ldexp   m_wm.l(ldexp.o)
    0x0800846e   0x0800846e   0x0000000e   Code   RO         5459    i._is_digit         c_w.l(__printf_wp.o)
    0x0800847c   0x0800847c   0x00000004   Code   RO         1012    i._sys_exit         usart.o
    0x08008480   0x08008480   0x00000034   Code   RO         1015    i.atk_8266_check_cmd  usart.o
    0x080084b4   0x080084b4   0x00000060   Code   RO         1018    i.atk_8266_send_cmd  usart.o
    0x08008514   0x08008514   0x0000003a   Code   RO         1904    i.crc_16            drive_communication.o
    0x0800854e   0x0800854e   0x00000002   PAD
    0x08008550   0x08008550   0x00000044   Code   RO          982    i.delay_ms          delay.o
    0x08008594   0x08008594   0x00000060   Code   RO          983    i.delay_us          delay.o
    0x080085f4   0x080085f4   0x00000044   Code   RO         2025    i.font_init         fontupd.o
    0x08008638   0x08008638   0x0000001c   Code   RO         1020    i.fputc             usart.o
    0x08008654   0x08008654   0x00000004   PAD
    0x08008658   0x08008658   0x0000008c   Code   RO         5866    i.frexp             m_wm.l(frexp.o)
    0x080086e4   0x080086e4   0x00000094   Code   RO          547    i.main              main.o
    0x08008778   0x08008778   0x00000096   Code   RO         1789    i.pid_calc          drive_pid.o
    0x0800880e   0x0800880e   0x00000002   PAD
    0x08008810   0x08008810   0x000000b8   Code   RO         1791    i.pid_init          drive_pid.o
    0x080088c8   0x080088c8   0x00000080   Code   RO         1792    i.pid_reset         drive_pid.o
    0x08008948   0x08008948   0x0000008c   Code   RO         1905    i.sendData          drive_communication.o
    0x080089d4   0x080089d4   0x000000ac   Code   RO         1021    i.uart_init         usart.o
    0x08008a80   0x08008a80   0x00000030   Code   RO         1906    i.usartSendData     drive_communication.o
    0x08008ab0   0x08008ab0   0x0000002c   Code   RO         5726    locale$$code        c_w.l(lc_numeric_c.o)
    0x08008adc   0x08008adc   0x0000002c   Code   RO         5817    locale$$code        c_w.l(lc_ctype_c.o)
    0x08008b08   0x08008b08   0x00000062   Code   RO         5487    x$fpl$d2f           fz_wm.l(d2f.o)
    0x08008b6a   0x08008b6a   0x00000002   PAD
    0x08008b6c   0x08008b6c   0x00000150   Code   RO         5489    x$fpl$dadd          fz_wm.l(daddsub_clz.o)
    0x08008cbc   0x08008cbc   0x00000010   Code   RO         5941    x$fpl$dcheck1       fz_wm.l(dcheck1.o)
    0x08008ccc   0x08008ccc   0x00000018   Code   RO         5602    x$fpl$dcmpinf       fz_wm.l(dcmpi.o)
    0x08008ce4   0x08008ce4   0x000002b0   Code   RO         5496    x$fpl$ddiv          fz_wm.l(ddiv.o)
    0x08008f94   0x08008f94   0x00000078   Code   RO         5499    x$fpl$deqf          fz_wm.l(deqf.o)
    0x0800900c   0x0800900c   0x0000005a   Code   RO         5501    x$fpl$dfixu         fz_wm.l(dfixu.o)
    0x08009066   0x08009066   0x0000002e   Code   RO         5510    x$fpl$dflt          fz_wm.l(dflt_clz.o)
    0x08009094   0x08009094   0x00000026   Code   RO         5509    x$fpl$dfltu         fz_wm.l(dflt_clz.o)
    0x080090ba   0x080090ba   0x00000002   PAD
    0x080090bc   0x080090bc   0x00000078   Code   RO         5515    x$fpl$dleqf         fz_wm.l(dleqf.o)
    0x08009134   0x08009134   0x00000154   Code   RO         5517    x$fpl$dmul          fz_wm.l(dmul.o)
    0x08009288   0x08009288   0x0000009c   Code   RO         5604    x$fpl$dnaninf       fz_wm.l(dnaninf.o)
    0x08009324   0x08009324   0x0000000c   Code   RO         5606    x$fpl$dretinf       fz_wm.l(dretinf.o)
    0x08009330   0x08009330   0x0000006c   Code   RO         5519    x$fpl$drleqf        fz_wm.l(drleqf.o)
    0x0800939c   0x0800939c   0x00000016   Code   RO         5490    x$fpl$drsb          fz_wm.l(daddsub_clz.o)
    0x080093b2   0x080093b2   0x00000002   PAD
    0x080093b4   0x080093b4   0x000001d4   Code   RO         5491    x$fpl$dsub          fz_wm.l(daddsub_clz.o)
    0x08009588   0x08009588   0x00000056   Code   RO         5521    x$fpl$f2d           fz_wm.l(f2d.o)
    0x080095de   0x080095de   0x0000008c   Code   RO         5608    x$fpl$fnaninf       fz_wm.l(fnaninf.o)
    0x0800966a   0x0800966a   0x0000000a   Code   RO         5829    x$fpl$fpinit        fz_wm.l(fpinit.o)
    0x08009674   0x08009674   0x0000000a   Code   RO         5610    x$fpl$fretinf       fz_wm.l(fretinf.o)
    0x0800967e   0x0800967e   0x00000006   Code   RO         5612    x$fpl$ieeestatus    fz_wm.l(istatus.o)
    0x08009684   0x08009684   0x00000004   Code   RO         5523    x$fpl$printf1       fz_wm.l(printf1.o)
    0x08009688   0x08009688   0x00000004   Code   RO         5525    x$fpl$printf2       fz_wm.l(printf2.o)
    0x0800968c   0x0800968c   0x00000064   Code   RO         5943    x$fpl$retnan        fz_wm.l(retnan.o)
    0x080096f0   0x080096f0   0x0000005c   Code   RO         5938    x$fpl$scalbn        fz_wm.l(scalbn.o)
    0x0800974c   0x0800974c   0x00000004   Code   RO         5732    x$fpl$scanf1        fz_wm.l(scanf1.o)
    0x08009750   0x08009750   0x00000008   Code   RO         5831    x$fpl$scanf2        fz_wm.l(scanf2.o)
    0x08009758   0x08009758   0x00000030   Code   RO         5945    x$fpl$trapveneer    fz_wm.l(trapv.o)
    0x08009788   0x08009788   0x00000000   Code   RO         5614    x$fpl$usenofp       fz_wm.l(usenofp.o)
    0x08009788   0x08009788   0x0000a30c   Data   RO         2010    .constdata          fonts.o
    0x08013a94   0x08013a94   0x00000011   Data   RO         5467    .constdata          c_w.l(__printf_flags_ss_wp.o)
    0x08013aa5   0x08013aa5   0x00000003   PAD
    0x08013aa8   0x08013aa8   0x00000040   Data   RO         5540    .constdata          m_wm.l(log10f.o)
    0x08013ae8   0x08013ae8   0x00000140   Data   RO         5554    .constdata          m_wm.l(powf.o)
    0x08013c28   0x08013c28   0x00000026   Data   RO         5589    .constdata          c_w.l(_printf_fp_hex.o)
    0x08013c4e   0x08013c4e   0x00000002   PAD
    0x08013c50   0x08013c50   0x00000094   Data   RO         5697    .constdata          c_w.l(bigflt0.o)
    0x08013ce4   0x08013ce4   0x00000020   Data   RO         5947    Region$$Table       anon$$obj.o
    0x08013d04   0x08013d04   0x00000008   Data   RO         5825    c$$dinf             fz_wm.l(fpconst.o)
    0x08013d0c   0x08013d0c   0x00000008   Data   RO         5828    c$$dmax             fz_wm.l(fpconst.o)
    0x08013d14   0x08013d14   0x0000001c   Data   RO         5725    locale$$data        c_w.l(lc_numeric_c.o)
    0x08013d30   0x08013d30   0x00000110   Data   RO         5816    locale$$data        c_w.l(lc_ctype_c.o)


    Execution Region RW_IRAM1 (Exec base: 0x20000000, Load base: 0x08013e40, Size: 0x0001cd20, Max: 0x000e0000, ABSOLUTE)

    Exec Addr    Load Addr    Size         Type   Attr      Idx    E Section Name        Object

    0x20000000   0x08013e40   0x00000004   Data   RW            8    .data               app_touch.o
    0x20000004   0x08013e44   0x00000001   Data   RW          332    .data               app_led.o
    0x20000005   0x08013e45   0x00000003   PAD
    0x20000008   0x08013e48   0x00000038   Data   RW          367    .data               app_adf4351.o
    0x20000040   0x08013e80   0x00000010   Data   RW          447    .data               app_adf4351_sweep.o
    0x20000050   0x08013e90   0x00000004   Data   RW          473    .data               app_switch.o
    0x20000054   0x08013e94   0x0000001e   Data   RW          589    .data               os_cpu.o
    0x20000072   0x08013eb2   0x00000002   Data   RW          723    .data               os_ui.o
    0x20000074   0x08013eb4   0x00000009   Data   RW         1023    .data               usart.o
    0x2000007d   0x08013ebd   0x00000001   PAD
    0x2000007e   0x08013ebe   0x0000000b   Data   RW         1629    .data               drive_touchkey.o
    0x20000089   0x08013ec9   0x00000003   PAD
    0x2000008c   0x08013ecc   0x00000020   Data   RW         2011    .data               fonts.o
    0x200000ac   0x08013eec   0x00000008   Data   RW         2163    .data               tft_lcd.o
    0x200000b4   0x08013ef4   0x00000002   Data   RW         2391    .data               w25q64.o
    0x200000b6   0x08013ef6   0x00000010   Data   RW         3844    .data               stm32f4xx_rcc.o
    0x200000c6   0x08013f06   0x00000002   PAD
    0x200000c8   0x08013f08   0x00000014   Data   RW         5390    .data               system_stm32f4xx.o
    0x200000dc        -       0x0000000e   Zero   RW            7    .bss                app_touch.o
    0x200000ea        -       0x00000012   Zero   RW          406    .bss                app_key.o
    0x200000fc        -       0x0000003c   Zero   RW          472    .bss                app_switch.o
    0x20000138        -       0x00005574   Zero   RW          506    .bss                app_freqana.o
    0x200056ac        -       0x00014850   Zero   RW          548    .bss                main.o
    0x20019efc        -       0x00000480   Zero   RW          588    .bss                os_cpu.o
    0x2001a37c        -       0x000000c8   Zero   RW         1022    .bss                usart.o
    0x2001a444        -       0x00000028   Zero   RW         1628    .bss                drive_touchkey.o
    0x2001a46c        -       0x00000831   Zero   RW         1907    .bss                drive_communication.o
    0x2001ac9d        -       0x00000021   Zero   RW         2026    .bss                fontupd.o
    0x2001acbe   0x08013f1c   0x00000002   PAD
    0x2001acc0        -       0x00000060   Zero   RW         5745    .bss                c_w.l(libspace.o)
    0x2001ad20        -       0x00000000   Zero   RW         5423    HEAP                startup_stm32f40_41xxx.o
    0x2001ad20        -       0x00002000   Zero   RW         5422    STACK               startup_stm32f40_41xxx.o



  Load Region LR$$.ARM.__AT_0x10000000 (Base: 0x10000000, Size: 0x00000000, Max: 0x0000f000, ABSOLUTE)

    Execution Region ER$$.ARM.__AT_0x10000000 (Exec base: 0x10000000, Load base: 0x10000000, Size: 0x0000f000, Max: 0x0000f000, ABSOLUTE, UNINIT)

    Exec Addr    Load Addr    Size         Type   Attr      Idx    E Section Name        Object

    0x10000000        -       0x0000f000   Zero   RW          869    .ARM.__AT_0x10000000  os_malloc.o



  Load Region LR$$.ARM.__AT_0x1000F000 (Base: 0x1000f000, Size: 0x00000000, Max: 0x00000f00, ABSOLUTE)

    Execution Region ER$$.ARM.__AT_0x1000F000 (Exec base: 0x1000f000, Load base: 0x1000f000, Size: 0x00000f00, Max: 0x00000f00, ABSOLUTE, UNINIT)

    Exec Addr    Load Addr    Size         Type   Attr      Idx    E Section Name        Object

    0x1000f000        -       0x00000f00   Zero   RW          870    .ARM.__AT_0x1000F000  os_malloc.o



  Load Region LR$$.ARM.__AT_0x68000000 (Base: 0x68000000, Size: 0x00000000, Max: 0x000f0000, ABSOLUTE)

    Execution Region ER$$.ARM.__AT_0x68000000 (Exec base: 0x68000000, Load base: 0x68000000, Size: 0x000f0000, Max: 0x000f0000, ABSOLUTE, UNINIT)

    Exec Addr    Load Addr    Size         Type   Attr      Idx    E Section Name        Object

    0x68000000        -       0x000f0000   Zero   RW          871    .ARM.__AT_0x68000000  os_malloc.o



  Load Region LR$$.ARM.__AT_0x680F0000 (Base: 0x680f0000, Size: 0x00000000, Max: 0x0000f000, ABSOLUTE)

    Execution Region ER$$.ARM.__AT_0x680F0000 (Exec base: 0x680f0000, Load base: 0x680f0000, Size: 0x0000f000, Max: 0x0000f000, ABSOLUTE, UNINIT)

    Exec Addr    Load Addr    Size         Type   Attr      Idx    E Section Name        Object

    0x680f0000        -       0x0000f000   Zero   RW          872    .ARM.__AT_0x680F0000  os_malloc.o


==============================================================================

Image component sizes


      Code (inc. data)   RO Data    RW Data    ZI Data      Debug   Object Name

      2018        260          0         56          0       2710   app_adf4351.o
       228         34          0         16          0        613   app_adf4351_sweep.o
      2244        202          0          0      21876       5448   app_freqana.o
       644         16          0          0         18       2471   app_key.o
       208         16          0          1          0       1109   app_led.o
       376         58          0          4         60       1320   app_switch.o
       260         22          0          4         14     319615   app_touch.o
         0          0          0          0          0        713   character.o
       144         20          0          0          0        272   core.o
       164         12          0          0          0       1330   delay.o
       208         20          0          0          0       1625   drive_adc.o
       990         68          0          0          0       4363   drive_adf4351.o
       460         26          0          0          0       3093   drive_ads1256.o
       426        134          0          0       2097       4473   drive_communication.o
       102          4          0          0          0       1135   drive_dac.o
       144         20          0          0          0       1083   drive_gpio.o
       484         66          0          0          0       9852   drive_interrupt.o
       462         10          0          0          0       2570   drive_pid.o
       720         48          0          0          0       4741   drive_touch.o
      2196        162          0         11         40       2447   drive_touchkey.o
         0          0      41740         32          0       1426   fonts.o
        68          4          0          0         33       1281   fontupd.o
       196         58          0          0      84048       1785   main.o
       160         14          0          0          0       1646   misc.o
      1340        156          0         30       1152      10447   os_cpu.o
         0          0          0          0    1109760       1742   os_malloc.o
      4080        144          0          2          0      17113   os_ui.o
       308         24          0          0          0       1801   spi.o
        60         22        392          0       8192        832   startup_stm32f40_41xxx.o
       374         24          0          0          0       5782   stm32f4xx_adc.o
       124         18          0          0          0       2567   stm32f4xx_dac.o
        36         10          0          0          0       1196   stm32f4xx_exti.o
       282          6          0          0          0       1925   stm32f4xx_fsmc.o
       222          0          0          0          0       3035   stm32f4xx_gpio.o
        22          0          0          0          0       3247   stm32f4xx_it.o
       392         48          0         16          0       6017   stm32f4xx_rcc.o
       112          0          0          0          0       3674   stm32f4xx_spi.o
        40          0          0          0          0       1934   stm32f4xx_tim.o
       438          8          0          0          0       5721   stm32f4xx_usart.o
       340         32          0         20          0       1801   system_stm32f4xx.o
      1526         34          0          8          0       9555   tft_lcd.o
       568         60          0          9        200       5637   usart.o
       284         26          0          2          0       2452   w25q64.o

    ----------------------------------------------------------------------
     23492       1890      42164        220    1227492     463599   Object Totals
         0          0         32          0          0          0   (incl. Generated)
        42          4          0          9          2          0   (incl. Padding)

    ----------------------------------------------------------------------

      Code (inc. data)   RO Data    RW Data    ZI Data      Debug   Library Member Name

         8          0          0          0          0         68   __main.o
       392          4         17          0          0         92   __printf_flags_ss_wp.o
        14          0          0          0          0         68   __printf_wp.o
         0          0          0          0          0          0   __rtentry.o
        12          0          0          0          0          0   __rtentry2.o
         6          0          0          0          0          0   __rtentry4.o
        52          8          0          0          0          0   __scatter.o
        26          0          0          0          0          0   __scatter_copy.o
        28          0          0          0          0          0   __scatter_zi.o
        28          0          0          0          0         68   _chval.o
         6          0          0          0          0          0   _printf_a.o
        44          0          0          0          0        108   _printf_char.o
        48          6          0          0          0         96   _printf_char_common.o
        36          4          0          0          0         80   _printf_char_file.o
         6          0          0          0          0          0   _printf_e.o
         6          0          0          0          0          0   _printf_f.o
      1054          0          0          0          0        216   _printf_fp_dec.o
       764          8         38          0          0        100   _printf_fp_hex.o
       128         16          0          0          0         84   _printf_fp_infnan.o
         6          0          0          0          0          0   _printf_g.o
        78          0          0          0          0        108   _printf_pad.o
         0          0          0          0          0          0   _printf_percent.o
         4          0          0          0          0          0   _printf_percent_end.o
         6          0          0          0          0          0   _printf_s.o
        82          0          0          0          0         80   _printf_str.o
        22          0          0          0          0        100   _rserrno.o
        64          0          0          0          0         84   _sgetc.o
        10          0          0          0          0         68   _sputc.o
       228          4        148          0          0         96   bigflt0.o
      2152        136          0          0          0        960   btod.o
        18          0          0          0          0         80   exit.o
         8          0          0          0          0         68   ferror.o
         6          0          0          0          0        152   heapauxi.o
        18          0          0          0          0         76   isspace.o
        44         10        272          0          0         76   lc_ctype_c.o
        44         10         28          0          0         76   lc_numeric_c.o
         2          0          0          0          0          0   libinit.o
        34          0          0          0          0          0   libinit2.o
         2          0          0          0          0          0   libshutdown.o
         2          0          0          0          0          0   libshutdown2.o
         8          4          0          0         96         68   libspace.o
        38          0          0          0          0         68   llshl.o
       138          0          0          0          0         80   lludiv10.o
        24          4          0          0          0         84   noretval__2printf.o
        40          6          0          0          0         84   noretval__2sprintf.o
        16          4          0          0          0         76   rt_ctype_table.o
         8          4          0          0          0         68   rt_errno_addr_intlibspace.o
         8          4          0          0          0         68   rt_locale_intlibspace.o
        78          0          0          0          0         80   rt_memclr_w.o
       100          0          0          0          0         80   rt_memcpy_w.o
         2          0          0          0          0          0   rtexit.o
        10          0          0          0          0          0   rtexit2.o
      1272         16          0          0          0        168   scanf_fp.o
       800         14          0          0          0        100   scanf_hexfp.o
       308         16          0          0          0        100   scanf_infnan.o
       128          0          0          0          0         68   strcmpv7m.o
        36          0          0          0          0         80   strstr.o
       164         14          0          0          0        120   strtod.o
        74          0          0          0          0         80   sys_stackheap_outer.o
         2          0          0          0          0         68   use_no_semi.o
         2          0          0          0          0         68   use_no_semi_2.o
        98          4          0          0          0        140   d2f.o
       826         16          0          0          0        492   daddsub_clz.o
        16          4          0          0          0        116   dcheck1.o
        24          0          0          0          0        116   dcmpi.o
       688        140          0          0          0        256   ddiv.o
       120          4          0          0          0        140   deqf.o
        90          4          0          0          0        140   dfixu.o
        84          0          0          0          0        232   dflt_clz.o
       120          4          0          0          0        140   dleqf.o
       340         12          0          0          0        152   dmul.o
       156          4          0          0          0        140   dnaninf.o
        12          0          0          0          0        116   dretinf.o
       108          0          0          0          0        128   drleqf.o
        86          4          0          0          0        132   f2d.o
       140          4          0          0          0        132   fnaninf.o
         0          0         16          0          0          0   fpconst.o
        10          0          0          0          0        116   fpinit.o
        10          0          0          0          0        116   fretinf.o
         6          0          0          0          0        116   istatus.o
         4          0          0          0          0        116   printf1.o
         4          0          0          0          0        116   printf2.o
       100          0          0          0          0        116   retnan.o
        92          0          0          0          0        116   scalbn.o
         4          0          0          0          0        116   scanf1.o
         8          0          0          0          0        132   scanf2.o
        48          0          0          0          0        116   trapv.o
         0          0          0          0          0          0   usenofp.o
        56         12          0          0          0        132   atof.o
        64         16          0          0          0        248   dunder.o
        48          0          0          0          0        124   fpclassify.o
        38          0          0          0          0        116   fpclassifyf.o
       140         22          0          0          0        132   frexp.o
        80         24          0          0          0        696   funder.o
       228          8          0          0          0        308   ldexp.o
       384         52         64          0          0        140   log10f.o
       266         16          0          0          0        308   narrow.o
      1636        110        320          0          0        372   powf.o

    ----------------------------------------------------------------------
     14908        758        908          0         96      10936   Library Totals
        30          6          5          0          0          0   (incl. Padding)

    ----------------------------------------------------------------------

      Code (inc. data)   RO Data    RW Data    ZI Data      Debug   Library Name

      8744        292        503          0         96       4612   c_w.l
      3194        200         16          0          0       3748   fz_wm.l
      2940        260        384          0          0       2576   m_wm.l

    ----------------------------------------------------------------------
     14908        758        908          0         96      10936   Library Totals

    ----------------------------------------------------------------------

==============================================================================


      Code (inc. data)   RO Data    RW Data    ZI Data      Debug   

     38400       2648      43072        220    1227588     451187   Grand Totals
     38400       2648      43072        220    1227588     451187   ELF Image Totals
     38400       2648      43072        220          0          0   ROM Totals

==============================================================================

    Total RO  Size (Code + RO Data)                81472 (  79.56kB)
    Total RW  Size (RW Data + ZI Data)           1227808 (1199.03kB)
    Total ROM Size (Code + RO Data + RW Data)      81692 (  79.78kB)

==============================================================================

